(lp0
(lp1
(S'5CECC5C30ACC4B3DE462792323967087CC53D947'
p2
I236000
S'NL'
p3
tp4
a(S'4A1B44330C6AE63BAE63C441D164CC17D68EFD53'
p5
I110000
S'GB'
p6
tp7
a(S'BC630CBBB518BE7E9F4E09712AB0269E9DC7D626'
p8
I249000
S'LR'
p9
tp10
a(S'https://www.google.fr'
p11
F25421.80377897407
tp12
aa(lp13
(S'21C33B130F7F1FB76435B09404C5999268827731'
p14
I154000
S'DE'
p15
tp16
a(S'51BD833B86D556EE968CDFFFD79592BE56761238'
p17
I43200
S'CH'
p18
tp19
a(S'B486925DC901969CCE2B371E93740CF98C30539D'
p20
I138000
S'DE'
p21
tp22
a(S'https://www.google.fr'
p23
F22713.303885065274
tp24
aa(lp25
(S'921DA852C95141F8964B359F774B35502E489869'
p26
I134000
S'GB'
p27
tp28
a(S'5510FC1736B16D46D3F2DDA5011995C478D42594'
p29
I36300
S'DE'
p30
tp31
a(S'06E123865C590189B3181114F23F0F13A7BC0E69'
p32
I104000
S'NL'
p33
tp34
a(S'https://www.google.fr'
p35
F23843.28546252769
tp36
aa(lp37
(S'D665C959571041972EA8C0DD77559EF5579BA112'
p38
I127000
S'NL'
p39
tp40
a(S'52F7C67BB331A2E7C446AFAE4AD300C67C64FBB8'
p41
I31000
S'DE'
p42
tp43
a(S'E1E922A20AF608728824A620BADC6EFC8CB8C2B8'
p44
I91200
S'GB'
p45
tp46
a(S'https://www.google.fr'
p47
F22604.518686778123
tp48
aa(lp49
(S'0CA305E63C99FB8E2E1C6CA11CD1E569E780C691'
p50
I114000
S'FR'
p51
tp52
a(S'E3CBB5ED34160447BA3E423BC36C364E0D9BDB0B'
p53
I28700
S'FR'
p54
tp55
a(S'D3BDECB920E0B7543AD2BA7BF573F7B0F37F7B0F'
p56
I85900
S'DE'
p57
tp58
aa(lp59
(S'49E7AD01BB96F6FE3AB8C3B15BD2470B150354DF'
p60
I103000
S'FR'
p61
tp62
a(S'2BFB26EA73EB5FFEB95A5F9FA33254B133AD3D5A'
p63
I25000
S'AT'
p64
tp65
a(S'8853B3FBB050D927BD4A7BC8624550E753652D7C'
p66
I76700
S'DE'
p67
tp68
a(S'https://www.google.fr'
p69
F24806.77205878201
tp70
aa(lp71
(S'4E021F36F95EDD4F93F824020E3C5BFEA7B595CC'
p72
I95300
S'NL'
p73
tp74
a(S'A4AE71832204EBF2D306D58E0DDE2FD767DCEC54'
p75
I21400
S'DE'
p76
tp77
a(S'1FEC860E59949E60D112FA26649CF0E32693FB4F'
p78
I66900
S'GB'
p79
tp80
aa(lp81
(S'317E00F4E7C469B0AB9C6D4E0CEA2DF21F5EF140'
p82
I89700
S'GB'
p83
tp84
a(S'6530C1F5E453CC08EBB1A1D4B5836C921060473B'
p85
I19500
S'DE'
p86
tp87
a(S'01A9258A46E97FF8B2CAC7910577862C14F2C524'
p88
I61300
S'AT'
p89
tp90
a(S'https://www.google.fr'
p91
F25227.949608289062
tp92
aa(lp93
(S'332CD489177F202570A7021328A17A91BF823889'
p94
I84200
S'NL'
p95
tp96
a(S'030F202056BA760F66047AC51B187DC1739D704C'
p97
I16900
S'NL'
p98
tp99
a(S'FAC847BFE76E4D80CD696D7B61B5185CDCB40D8D'
p100
I57100
S'FR'
p101
tp102
a(S'https://www.google.fr'
p103
F21469.899634300273
tp104
aa(lp105
(S'3C3A6134E4B5B7D1C18AD4E86EE23FAC63866554'
p106
I81800
S'DE'
p107
tp108
a(S'375B133770C7DB13151E8623C9724DE61424B4B0'
p109
I16000
S'GB'
p110
tp111
a(S'A0F06C2FADF88D3A39AA3072B406F09D7095AC9E'
p112
I55400
S'DE'
p113
tp114
a(S'https://www.google.fr'
p115
F23830.574169034793
tp116
aa(lp117
(S'F6740DEABFD5F62612FA025A5079EA72846B1F67'
p118
I76800
S'GB'
p119
tp120
a(S'FE84BB532A7DDABA5952A1F9AAD7F3AE00DF7FB6'
p121
I14900
S'FR'
p122
tp123
a(S'74A19D86DDF63F1133B414B81F36E1F44640811F'
p124
I53900
S'FR'
p125
tp126
aa(lp127
(S'1DBAED235E3957DE1ABD25B4206BE71406FB61F8'
p128
I74300
S'DE'
p129
tp130
a(S'4A0E54E69343B7CF6138C118843CE860E8511F78'
p131
I13000
S'CH'
p132
tp133
a(S'973607526BE9C8FDA03EBBAF527D67AE6FFD65DD'
p134
I49000
S'NL'
p135
tp136
a(S'https://www.google.fr'
p137
F22274.006499483672
tp138
aa(lp139
(S'B7EC0C02D7D9F1E31B0C251A6B058880778A0CD1'
p140
I71900
S'NL'
p141
tp142
a(S'EDC45DE52F5D938D42373BF2E0013D0C385F36E3'
p143
I12100
S'DE'
p144
tp145
a(S'4EBEA80008FC281B2594A34C2F00727A673F33C5'
p146
I45400
S'FR'
p147
tp148
a(S'https://www.google.fr'
p149
F22837.72272893949
tp150
aa(lp151
(S'FAE117D76FF1CC736BDC4AE406D443BB975DBBD8'
p152
I69300
S'FR'
p153
tp154
a(S'716F11627AED3237A84883FC25B928C356532E6E'
p155
I11600
S'SI'
p156
tp157
a(S'9E0B9F902F83E96C352E3B9ECEA4B60B1301A7A1'
p158
I43900
S'LU'
p159
tp160
a(S'https://www.google.fr'
p161
F24734.245299260594
tp162
aa(lp163
(S'D165930932CAD4845BDE5E4B269066A7A385847B'
p164
I66700
S'FR'
p165
tp166
a(S'469E38D5A35B29D593CBFCE19C3706BEDB30B7C9'
p167
I10700
S'FR'
p168
tp169
a(S'65F9944338C684109EB975D0EC7489B30E191E87'
p170
I41800
S'NL'
p171
tp172
a(S'https://www.google.fr'
p173
F15131.165440426586
tp174
aa(lp175
(S'327F5823438B8EC86EC33355C147D8455AB1C14B'
p176
I64800
Ntp177
a(S'B393B44635730633EBA501DE8886EF6660098DE5'
p178
I10000
S'FR'
p179
tp180
a(S'A9F5135AE18C7E25C7C79117CD8C7619BFEB85ED'
p181
I37400
S'NL'
p182
tp183
aa(lp184
(S'C804BE8FB1C7C42D43C4A5E2039E77AA0FF3A8B4'
p185
I62600
S'NL'
p186
tp187
a(S'343EB1B9C516F4A831E53734A1A88D0FAF6B5B2A'
p188
I9550
S'DE'
p189
tp190
a(S'4F0003EAB0E8712B94B29A84BF8B8F34C95927BC'
p191
I35200
S'NL'
p192
tp193
aa(lp194
(S'10E13E340651D0EF66B4DEBF610B3C0981168107'
p195
I62000
S'NL'
p196
tp197
a(S'4DDFE360220A80F20A307152186B87B59D883536'
p198
I9070
S'DE'
p199
tp200
a(S'BA57F79AADE2B71A18B06026C05AA58A53F6267B'
p201
I33200
S'US'
p202
tp203
aa(lp204
(S'B70CFA35AD28A73959110549131850B2A26B6BF5'
p205
I61100
S'GB'
p206
tp207
a(S'6FDF8489B7AEEA28F54198A3AD5E9C33DCBC3433'
p208
I8760
S'GB'
p209
tp210
a(S'A0F39D32028CEC7F35419E9570401DE15B1B4564'
p211
I31500
S'DE'
p212
tp213
a(S'https://www.google.fr'
p214
F16133.787408684886
tp215
aa(lp216
(S'FFA72BD683BC2FCF988356E6BEC1E490F313FB07'
p217
I58900
S'SE'
p218
tp219
a(S'EE21F83AB6F76E3B3FFCBA5C2496F789CB84E7C6'
p220
I8230
S'US'
p221
tp222
a(S'9D6AE1BD4FDF39721CE908966E79E16F9BFCCF2F'
p223
I30500
Ntp224
aa(lp225
(S'50586E25BE067FD1F739998550EDDCB1A14CA5B2'
p226
I57500
S'CH'
p227
tp228
a(S'F0BCA23872B699283AA039899263DF0147E9B48A'
p229
I7880
S'FR'
p230
tp231
a(S'FCB6695F8F2DC240E974510A4B3A0F2B12AB5B64'
p232
I29500
S'GB'
p233
tp234
a(S'https://www.google.fr'
p235
F16062.563402033018
tp236
aa(lp237
(S'FCC1415B5A6C4E0DC4DA1DFA6F44EED0C304B127'
p238
I56400
S'NL'
p239
tp240
a(S'7BC766D4F2E67E75A632E39905766C895AF41126'
p241
I7560
S'FR'
p242
tp243
a(S'C79552275DFCD486B942510EF663ED36ACA1A84B'
p244
I28800
S'DE'
p245
tp246
a(S'https://www.google.fr'
p247
F15253.133239569152
tp248
aa(lp249
(S'890E2EA65455FBF0FAAB4159FAC4412BDCB24295'
p250
I55600
S'US'
p251
tp252
a(S'172DC95F3245A3304F982DD1C44BFB7813CE2787'
p253
I7380
S'DE'
p254
tp255
a(S'3E1762CC4552568B5CA361100C59D7786D25965C'
p256
I27500
S'DE'
p257
tp258
a(S'https://www.google.fr'
p259
F39353.03108737365
tp260
aa(lp261
(S'B4F883DB3D478C7AE569C9F6CB766FD58650DC6A'
p262
I55200
S'RO'
p263
tp264
a(S'EF6591754F9079DD122EFC2C4B52917F625A8E5B'
p265
I7060
S'DE'
p266
tp267
a(S'662D59F79DFAEB04914915A46DF9BDDBAB4415C4'
p268
I26700
S'DE'
p269
tp270
a(S'https://www.google.fr'
p271
F13991.435553916523
tp272
aa(lp273
(S'C5486131E3681A93137C9508D2CD0E5E60147267'
p274
I54900
S'DE'
p275
tp276
a(S'250BECB230B4591D2C8CED337841B1C54275EB01'
p277
I6840
S'CH'
p278
tp279
a(S'01A0FC0A1A118E1D7B178E239654080D5CFE63F8'
p280
I25700
S'NO'
p281
tp282
a(S'https://www.google.fr'
p283
F16225.180063762244
tp284
aa(lp285
(S'590F9B111AA2991BB1ECE9A9DF4AC05FA47AE106'
p286
I53800
S'GB'
p287
tp288
a(S'D33D98BA997A883CA0973BEF5BA85B422E997881'
p289
I6270
S'US'
p290
tp291
a(S'9EC5E097663862DF861A18C32B37C5F82284B27D'
p292
I24900
S'NL'
p293
tp294
a(S'https://www.google.fr'
p295
F41547.366209843254
tp296
aa(lp297
(S'7ED63F711D60CF2940DBE028E63467C4AADD7D80'
p298
I52900
S'NL'
p299
tp300
a(S'D68167710E1560BEDB1E73A5848CFC3CA93770AE'
p301
I5710
S'DE'
p302
tp303
a(S'C585C035FD2A5A65C031F242D1D112629097AE7E'
p304
I23600
S'BG'
p305
tp306
a(S'https://www.google.fr'
p307
F25657.913093048297
tp308
aa(lp309
(S'7A5367739BFB404B347D9981DC2687A2B381E5BF'
p310
I52100
S'FR'
p311
tp312
a(S'AD29F2D87DA141CCB4233F823DD189FD32B8BA14'
p313
I5510
S'US'
p314
tp315
a(S'B01B7973207B1FD2F71D51D1B51B89EE77035CF4'
p316
I22900
S'DE'
p317
tp318
a(S'https://www.google.fr'
p319
F40271.42872655121
tp320
aa(lp321
(S'3D615DEF97F387631F50201FAFA6E7B67FDF3FEF'
p322
I50300
S'NL'
p323
tp324
a(S'18FC711ED40BB5E75F9AF35BBCBFCEFDCAB7436B'
p325
I5180
S'FR'
p326
tp327
a(S'29A663712E0AD2C435509D35EE8734CFB3E1649D'
p328
I22200
S'GB'
p329
tp330
a(S'https://www.google.fr'
p331
F21992.15989015082
tp332
aa(lp333
(S'CF8F72AEAD6FAA60EF62E7433F2B494594E51DD5'
p334
I48900
S'FR'
p335
tp336
a(S'F0A97AAF092015293EC63D7E75D9C2B70B7C360B'
p337
I5010
S'DE'
p338
tp339
a(S'BDA7A91FF3806DE5109FDAE74CFEFB3BABB9E10F'
p340
I20700
S'CH'
p341
tp342
aa(lp343
(S'415B0A1A9054FE3570CA329878D4212D1D85D151'
p344
I48100
S'US'
p345
tp346
a(S'BD552C165E2ED2887D3F1CCE9CFF155DDA2D86E6'
p347
I4910
S'RU'
p348
tp349
a(S'F2FD4BCC0A158C832E608C5DB77ADD76B519FE62'
p350
I20400
S'NL'
p351
tp352
a(S'https://www.google.fr'
p353
F43996.18581449902
tp354
aa(lp355
(S'79861CF8522FC637EF046F7688F5289E49D94576'
p356
I47100
S'SE'
p357
tp358
a(S'6A914C2649EA67210319A3D9EF40BDBDC7A0CAF3'
p359
I4810
S'FR'
p360
tp361
a(S'749EF4A434DFD00DAB31E93DE86233FB916D31E3'
p362
I20000
S'LU'
p363
tp364
a(S'https://www.google.fr'
p365
F16025.104391363713
tp366
aa(lp367
(S'CCF6D82B47DA428626DD68B01B3E5C510647A4C1'
p368
I46700
S'BE'
p369
tp370
a(S'54F8E06B82620803B87D158A252FE381D2DD578C'
p371
I4490
S'FR'
p372
tp373
a(S'377E5E817A84FAE0F4DC3427805DB2E8A6CBBFC0'
p374
I19500
S'CH'
p375
tp376
aa(lp377
(g146
I45400
S'FR'
p378
tp379
a(S'0B08D4F6C7BC43D9577D7F07764231D3D2949C45'
p380
I4360
S'NL'
p381
tp382
a(S'42B69143DAC4FBF94F0794193E271FC38B222FC4'
p383
I19000
S'NL'
p384
tp385
a(S'https://www.google.fr'
p386
F15627.441617779506
tp387
aa(lp388
(S'9EAB5E8034D687A58E439BE9C0FB0015F4F95FBA'
p389
I44900
S'SE'
p390
tp391
a(S'4981E8BF3F78232D3E14C9FD112851B3BC1F9FA4'
p392
I4290
S'NL'
p393
tp394
a(S'E3DB2E354B883B59E8DC56B3E7A353DDFD457812'
p395
I18700
S'US'
p396
tp397
a(S'https://www.google.fr'
p398
F40370.1217384803
tp399
aa(lp400
(S'1FC841137C1F4C525D869B908E007D1D35727EF2'
p401
I44100
S'GB'
p402
tp403
a(S'D313B081A3EFC5492BE95AFE39F715413DD35586'
p404
I4200
S'FR'
p405
tp406
a(S'8BF22BEA5F854F2BB2E09C71260ADF590D355E36'
p407
I18300
S'DE'
p408
tp409
a(S'https://www.google.fr'
p410
F16148.213800291382
tp411
aa(lp412
(g158
I43900
S'LU'
p413
tp414
a(S'0CE3B73DDFF92FF6653A9C7F9003A32BB6C2364D'
p415
I4050
S'NO'
p416
tp417
a(S'7066C96CDC6E49352532F1400F556491CC3A1D2D'
p418
I18100
S'CZ'
p419
tp420
a(S'https://www.google.fr'
p421
F16014.132127438821
tp422
aa(lp423
(S'5CF8AFA5E4B0BB88942A44A3F3AAE08C3BDFD60B'
p424
I43200
S'SE'
p425
tp426
a(S'09195B32B74E36151315B65E8D468F90A0840B14'
p427
I3950
S'CZ'
p428
tp429
a(S'C7E75D7D968C2355791EC29A420F69AF2737DA58'
p430
I17500
S'NL'
p431
tp432
a(S'https://www.google.fr'
p433
F15849.741819541323
tp434
aa(lp435
(S'23698ACD40ADFE9E1B6E372CF373E93F93C0193D'
p436
I42600
S'NL'
p437
tp438
a(S'ADC9038EA5888CA3A9F83DDD85B96FEBAC487B4D'
p439
I3890
S'FR'
p440
tp441
a(S'4F7CAE3C1DDB23A6BA01CF4F8EBB4257AD40875C'
p442
I17000
S'BG'
p443
tp444
a(S'https://www.google.fr'
p445
F15146.096564577956
tp446
aa(lp447
(S'5937800DEB5B3FDF68BD3392F2AE3A084254FE5F'
p448
I42000
S'DE'
p449
tp450
a(S'69D8E56CEDAAE7F776B32E15BB015E12DD020164'
p451
I3760
S'FR'
p452
tp453
a(S'0173A7A8BA9D32043641B69726D32A9ADFE26D16'
p454
I16500
S'NL'
p455
tp456
a(S'https://www.google.fr'
p457
F22433.939638311964
tp458
aa(lp459
(S'C4AFD509A86C53FFD0303BCF7A35A88843FA8FE7'
p460
I41100
S'GB'
p461
tp462
a(S'A0C8F9639F57C0275BACA118F1B31BCF243AE669'
p463
I3720
S'US'
p464
tp465
a(S'DF1EE95EB3F1A4017D41F9904CDC49B8348839F1'
p466
I16300
S'RO'
p467
tp468
a(S'https://www.google.fr'
p469
F44781.17242750697
tp470
aa(lp471
(S'4DE7D511DADF9A9E4D35439BDF8915F89456F928'
p472
I39600
S'DE'
p473
tp474
a(S'8C00FA7369A7A308F6A137600F0FA07990D9D451'
p475
I3650
S'GB'
p476
tp477
a(S'1DA33B9823B9E169138D2F7B6A9D0626244F0A4E'
p478
I15800
S'US'
p479
tp480
a(S'https://www.google.fr'
p481
F21813.91255254778
tp482
aa(lp483
(S'D64366987CB39F61AD21DBCF8142FA0577B92811'
p484
I38600
S'RO'
p485
tp486
a(S'63DB32FBD37D7CBCC6C80E35D6D0423D2B7D3EDE'
p487
I3530
S'US'
p488
tp489
a(S'7D5CCD1D8D798779979DF7E0A3A2BFA55D2C24B3'
p490
I15600
S'CA'
p491
tp492
a(S'https://www.google.fr'
p493
F21399.73688073588
tp494
aa(lp495
(S'6235ED62BF3E8708F2DC776A1BCC02F1EE923F55'
p496
I37900
S'GB'
p497
tp498
a(S'D3ED911183DF31FDB744A22F94BE6A856AC77D12'
p499
I3460
S'CA'
p500
tp501
a(S'8CCE3E38C6325E53F9378C1CA7F50366ED2A9BD7'
p502
I15000
S'UA'
p503
tp504
a(S'https://www.google.fr'
p505
F44765.70239200455
tp506
aa(lp507
(S'B0964415A5380080570845E7CBFCADF87FDCCE5A'
p508
I37300
Ntp509
a(S'F0841A16A8DDC871735AD8CC48C7339115DF516B'
p510
I3390
S'ES'
p511
tp512
a(S'3EAAAB35932610411E24FA4317603CB5780B80BC'
p513
I14600
S'CH'
p514
tp515
aa(lp516
(S'90C647CEB6743456C642C945C1E821D0C61DA8F8'
p517
I36700
S'GB'
p518
tp519
a(S'4335AEA68EAA380812D2EE8E58FB8E704BB8A6A2'
p520
I3260
S'US'
p521
tp522
a(S'69CBD4C5A2AA490E2AA01986DA551B51E5336437'
p523
I14100
S'LV'
p524
tp525
a(S'https://www.google.fr'
p526
F42814.30871988297
tp527
aa(lp528
(S'01CD89CDAC9FF3266D5CB4A5EF1999641FEE9BBE'
p529
I36300
S'AT'
p530
tp531
a(S'F6D85C2901D47F66EA7147BD0ED1AEA9F9E2A9FB'
p532
I3210
S'US'
p533
tp534
a(S'615EBC4B48F03858FA50A3E23E5AF569D0D2308A'
p535
I13600
S'CH'
p536
tp537
aa(lp538
(S'3A6A156A01891A13DFAB19A16D2DBABB84F1869B'
p539
I35800
S'GB'
p540
tp541
a(S'93EB375B0B3E8090FE9DBBB02C3F543F3423FA28'
p542
I3190
S'RO'
p543
tp544
a(S'81BC28735C58098591052099D5D068F0535AAE14'
p545
I13300
S'UA'
p546
tp547
a(S'https://www.google.fr'
p548
F16203.656316912367
tp549
aa(lp550
(S'E3CA236C613FC5A569B3112505E9E8672B35D783'
p551
I35600
S'TR'
p552
tp553
a(S'49C9773192BE9884277914F56D68B354E5B78A57'
p554
I3170
S'PL'
p555
tp556
a(S'2B44FD1742D26E4F28D4CACF1F0CF8A686270E45'
p557
I12900
S'CH'
p558
tp559
aa(lp560
(g191
I35200
S'NL'
p561
tp562
a(S'79390A5032B37640F4285E7990471A8BBBF8F790'
p563
I3100
S'GB'
p564
tp565
a(S'09619F41C3799128CAA9A1F7DFDBA7686DCD4B80'
p566
I12400
S'LV'
p567
tp568
a(S'https://www.google.fr'
p569
F16423.769721194643
tp570
aa(lp571
(S'8838645455FE1E03A4201322A1129D54A66E834D'
p572
I34500
S'FR'
p573
tp574
a(S'DE732BF6F57B05E0568237F36B75C584DB70E8DE'
p575
I3050
S'SE'
p576
tp577
a(S'AD368442E9FF33C08C7407DF2DA7DB958F406CE2'
p578
I12200
S'CH'
p579
tp580
aa(lp581
(S'BCF8F1F3CE6EC642A161562B1A921FBD912422FF'
p582
I33900
S'GB'
p583
tp584
a(S'5DCBD80D00E2720AA32E40317F51681BF52B5A63'
p585
I3020
S'US'
p586
tp587
a(S'2F57987F3942BA0BBD706D623F1FF86A896842C2'
p588
I11600
S'NL'
p589
tp590
a(S'https://www.google.fr'
p591
F37488.89489337987
tp592
aa(lp593
(S'136F9299A5009A4E0E96494E723BDB556FB0A26B'
p594
I33400
S'SE'
p595
tp596
a(S'9352B29095DAEEA31779DEF58380EA54CC135FE0'
p597
I2980
S'DE'
p598
tp599
a(S'231C00CD373C5DA8E5BA89883300506BC95881D9'
p600
I11100
S'MD'
p601
tp602
aa(lp603
(g201
I33200
S'US'
p604
tp605
a(S'236CF4D808756B7EE55FD3B96DCED80D2AB6901F'
p606
I2870
S'DE'
p607
tp608
a(S'ABD7842381D49C02BFE7A44F326ADAC6B3BD08F5'
p609
I10800
S'DE'
p610
tp611
a(S'https://www.google.fr'
p612
F32700.704510703243
tp613
aa(lp614
(S'4FF4BA8E10957BA6F47A2CA132155801701C0520'
p615
I33000
S'NL'
p616
tp617
a(S'A56EA79BAD76C916F010870C7EE002510546BAC0'
p618
I2840
S'DE'
p619
tp620
a(S'3D28E5FBD0C670C004E59D6CFDE7305BC8948FA8'
p621
I10500
S'BG'
p622
tp623
aa(lp624
(S'75F1992FD3F403E9C082A5815EB5D12934CDF46C'
p625
I32800
S'DE'
p626
tp627
a(S'10F7F8FE7871E00ED68B727C8CCAC45E2C8E4973'
p628
I2760
S'DE'
p629
tp630
a(S'C974508A98446F36169FB248655BCD50DF17F14C'
p631
I10200
S'GB'
p632
tp633
a(S'https://www.google.fr'
p634
F22361.169435777592
tp635
aa(lp636
(S'F8D27B163B9247B232A2EEE68DD8B698695C28DE'
p637
I32400
S'DE'
p638
tp639
a(S'5AA81AE1F2584F1740D813F407FF08028783C5DF'
p640
I2720
S'NL'
p641
tp642
a(S'FE67A1BA4EF1D13A617AEFB416CB9E44331B223A'
p643
I9890
S'GB'
p644
tp645
a(S'https://www.google.fr'
p646
F21842.720449279877
tp647
aa(lp648
(S'78EBA3F8933A0F596B43A7DBD794C5630F5B587D'
p649
I31900
S'IT'
p650
tp651
a(S'B292E2AF225887F6CA5D45860C4C38CEEE2390E4'
p652
I2710
S'FR'
p653
tp654
a(S'21627BF34FEB5128B3A671AFC81B9A4CEC7E580C'
p655
I9760
S'MD'
p656
tp657
a(S'https://www.google.fr'
p658
F27182.33456796722
tp659
aa(lp660
(S'C2C2B839F4CFFA5F7B7A40CB0BE84F7D948CB510'
p661
I31500
S'CH'
p662
tp663
a(S'20386D9A32BECBE602375E015FC70117955653F1'
p664
I2680
S'DE'
p665
tp666
a(S'A7C7EB2A0DFB2E3FFFC12B7756707433DD550F9E'
p667
I9350
S'US'
p668
tp669
a(S'https://www.google.fr'
p670
F32708.69259939131
tp671
aa(lp672
(S'C49A177510CAA653DA6727BF0E07FB7F56A0F09D'
p673
I31000
S'DE'
p674
tp675
a(S'A575E86C33A307BE9BA2317FC8FBD1D7587EFD0D'
p676
I2660
S'CH'
p677
tp678
a(S'9BA84E8C90083676F86C7427C8D105925F13716C'
p679
I8750
S'FR'
p680
tp681
a(S'https://www.google.fr'
p682
F15885.887169225167
tp683
aa(lp684
(S'A1B7C1F83E5DA4376FD2E1DBA7AC28A71AB332AD'
p685
I30800
S'DK'
p686
tp687
a(S'64748FC864B2D2C13F7E81E9B557AFD90850CA52'
p688
I2570
S'US'
p689
tp690
a(S'B5C6F712D656C9390056AA9BA7020C87EEE9FA30'
p691
I8380
S'MD'
p692
tp693
a(S'https://www.google.fr'
p694
F37640.950183371155
tp695
aa(lp696
(S'BD6A8E0EF1B8E021A41CB1C8463CF3F673BF1AC2'
p697
I30700
S'DE'
p698
tp699
a(S'D3AF4FB7ADDF5DBF63BDC954139074566F71B682'
p700
I2550
S'US'
p701
tp702
a(S'308D5B726051761D40DB31C7E89254A3CD3F27E0'
p703
I7830
S'BG'
p704
tp705
aa(lp706
(S'231C2B9C8C31C295C472D031E06964834B745996'
p707
I30300
S'DE'
p708
tp709
a(S'51DB300CB6B8E1EC5299C358D22DCE38B76C670D'
p710
I2520
S'US'
p711
tp712
a(S'D52CD431CEF28E01B11F545A84347EE45524BCA7'
p713
I7290
S'US'
p714
tp715
a(S'https://www.google.fr'
p716
F22011.32693282291
tp717
aa(lp718
(S'601C92108A568742A7A6D9473FE3A414F7149070'
p719
I30100
S'IT'
p720
tp721
a(S'B5A7EF4AC2BDD4CE151EFF607C07A91B7CC576F6'
p722
I2470
S'CA'
p723
tp724
a(S'C220BDAB86D623511BA71DA7C47AA5D6388597EA'
p725
I6900
S'FR'
p726
tp727
a(S'https://www.google.fr'
p728
F38675.22075022115
tp729
aa(lp730
(S'54DE63F4587058B79152A75A0238D7F7A0279215'
p731
I29900
S'AT'
p732
tp733
a(S'783C36CF2F61A1B3C4238499D92C619A9CDDEA3B'
p734
I2440
S'DE'
p735
tp736
a(S'31D01A8CD3799E0CB6A56D8F149846A1B0D90283'
p737
I6700
S'UA'
p738
tp739
a(S'https://www.google.fr'
p740
F26583.73996251553
tp741
aa(lp742
(S'8B75B072BAFD2871DF2B0A6A90057F2D7442EE54'
p743
I29700
S'DE'
p744
tp745
a(S'7CF8EFC6406668FCFEDFBFC33D77A3EE1CA6DAA6'
p746
I2400
S'GB'
p747
tp748
a(S'E94E2C5B7EF8BAB02A24305B397B8D962156AB55'
p749
I6430
S'US'
p750
tp751
a(S'https://www.google.fr'
p752
F22533.75690464604
tp753
aa(lp754
(g232
I29500
S'GB'
p755
tp756
a(S'6B66274DF73C29ACB1C1D0791C7DE2E5C554F9EC'
p757
I2370
S'US'
p758
tp759
a(S'D46175487C332CC602F7D1A44D7BA73348C6C49E'
p760
I6100
S'US'
p761
tp762
a(S'https://www.google.fr'
p763
F21340.555381708615
tp764
aa(lp765
(S'4C9BCE585C8BE13D13DBCAB208307C34FD7D6C67'
p766
I29100
S'FR'
p767
tp768
a(S'3CEE0B4716ECD6A33636E82224EEDDF4AD4B2A87'
p769
I2340
S'US'
p770
tp771
a(S'91824956DFA430C071BF6B94B623DF10931D1D40'
p772
I5830
S'FR'
p773
tp774
a(S'https://www.google.fr'
p775
F38214.08345906083
tp776
aa(lp777
(S'DC8EC8C0A6A36E6B3CF503360911F62A80CA9135'
p778
I28800
S'FR'
p779
tp780
a(S'5E99CA5F45A8757FACA7628278A08F8D6C1891E2'
p781
I2300
S'RU'
p782
tp783
a(S'45246164261A91103C2EBAAB9E08E0627F49A733'
p784
I5620
S'US'
p785
tp786
aa(lp787
(S'1F52D692FA2C21B23FAD4D711A7BF17BAE2673DF'
p788
I27900
S'DE'
p789
tp790
a(S'44FC675C2B4626F5886AFA5CCC5E7554821711C6'
p791
I2230
S'FI'
p792
tp793
a(S'6C931853DBA70F232F53BEA81E0B12C155649749'
p794
I5300
S'IS'
p795
tp796
a(S'https://www.google.fr'
p797
F24777.844812605203
tp798
aa(lp799
(S'F693ED46000B9D47E79BB8443D4F231A89E37570'
p800
I27600
S'DE'
p801
tp802
a(S'E2BACB5A8230FAE64DBA7526C88325A7AF3C64E0'
p803
I2210
S'US'
p804
tp805
a(S'84C158F72C49DEDE8DD8B4102D002DE82C4F484E'
p806
I5010
S'US'
p807
tp808
a(S'https://www.google.fr'
p809
F22111.799087526462
tp810
aa(lp811
(S'DD45695242C1C5E36DC5BE71EC1AE71A5D823B96'
p812
I27300
S'DE'
p813
tp814
a(S'E8057DEC7C3135E734776A399F39FB3CAC524EDF'
p815
I2180
S'NL'
p816
tp817
a(S'1220F0F20E80D348244C5F3B6D126DAA0A446DFD'
p818
I4750
S'US'
p819
tp820
a(S'https://www.google.fr'
p821
F39995.25011097974
tp822
aa(lp823
(S'A80FD02D956F0D0D1BF2BFD86ADAAF8C034D1FD6'
p824
I27100
S'SE'
p825
tp826
a(S'871F98A6C74857DAC08C4227D7564EE038E2AF03'
p827
I2160
S'SE'
p828
tp829
a(S'6A84FCCB65ABEF5C3C64F5B8219895DE4E9FD709'
p830
I4510
S'US'
p831
tp832
aa(lp833
(S'2A20A2E03AAD72EB3F7E259D960AAFF1F31E85B0'
p834
I26800
S'FR'
p835
tp836
a(S'476E545A4B9C9756C6695410F83A0C5E739A7BA2'
p837
I2140
S'DE'
p838
tp839
a(S'F310FDB5F912F9D1CEA4905A8565579DBE26576E'
p840
I4330
S'US'
p841
tp842
a(S'https://www.google.fr'
p843
F43070.219195675716
tp844
aa(lp845
(S'0AD3B16ADF3EED3E5962FA944CD501352E790814'
p846
I26500
S'DE'
p847
tp848
a(S'D964815C090A1F45FF025298C4E42565B40671E9'
p849
I2130
S'GB'
p850
tp851
a(S'B7828C22ECC3DA13480DAC1ECD4194F89F742EF6'
p852
I4130
S'NL'
p853
tp854
a(S'https://www.google.fr'
p855
F15837.973479734186
tp856
aa(lp857
(S'DAB96CEA61CC039A803217035293FAB32645FDDA'
p858
I26400
S'SK'
p859
tp860
a(S'16CB0D8A4525B4560F01D8689D7FB08E82DDCE06'
p861
I2110
S'US'
p862
tp863
a(S'8E7093C928C5FF8D8E854A312002A582F131728F'
p864
I3940
S'HU'
p865
tp866
a(S'https://www.google.fr'
p867
F32354.989723823506
tp868
aa(lp869
(S'22BCD0DFD148209C9860C7F89907AB4DEE974A08'
p870
I26200
S'DE'
p871
tp872
a(S'0ED98C2E8191D27754B8492EFB82E11C8025142D'
p873
I2090
S'US'
p874
tp875
a(S'6BF187E89311225880CEDF3F2956BD4E4009F68B'
p876
I3820
S'DE'
p877
tp878
a(S'https://www.google.fr'
p879
F35436.1380784614
tp880
aa(lp881
(S'6C87F089725DDE249D58732075B102405923A3B5'
p882
I25900
S'FR'
p883
tp884
a(S'8DCA8AA811A5DA0A758292E5A6DC3486DB1D948D'
p885
I2080
S'US'
p886
tp887
a(S'BF78125478F797DADC44D4EE57AAE4619D761F74'
p888
I3770
S'CA'
p889
tp890
a(S'https://www.google.fr'
p891
F27161.550567427483
tp892
aa(lp893
(g280
I25700
S'NO'
p894
tp895
a(S'F2A6F1BB8ADD47CC9CC67928EA8EA7FDB3F92533'
p896
I2060
S'US'
p897
tp898
a(S'7D182B903D51688C647E369DFA8DB466971C7D13'
p899
I3640
S'GB'
p900
tp901
a(S'https://www.google.fr'
p902
F38101.64843809771
tp903
aa(lp904
(S'7E970872909A9A10C32AEFE3CA693FFBD88EDDCF'
p905
I25600
S'DE'
p906
tp907
a(S'6B09B75E7C0219DFEACD957EA2E735F5C4C7209B'
p908
I2030
S'RU'
p909
tp910
a(S'B3233E96418C4E89AF22FC9A1F2392C0D194117B'
p911
I3500
S'NL'
p912
tp913
a(S'https://www.google.fr'
p914
F29117.29069986073
tp915
aa(lp916
(S'20198F4E1A0E23F32C6265DF749BA003DDAF79B1'
p917
I25300
S'SG'
p918
tp919
a(S'540A7B0A2A6E2E58863D67D58F971823C1D2469B'
p920
I2020
S'NL'
p921
tp922
a(S'F220B27ECA5EE1C9A3C65BBC700B1471488F86E8'
p923
I3410
S'CA'
p924
tp925
aa(lp926
(S'A3EC639C6574B2FBC31B468CF37DF390A553A2D2'
p927
I24800
S'IT'
p928
tp929
a(S'2912E8526BE85CA05B0B74C455E887756B0E9AFC'
p930
I1980
S'DE'
p931
tp932
a(S'382248E9E99857109B14344CF2B88166B41297A3'
p933
I3220
S'NL'
p934
tp935
aa(lp936
(S'20F20581F3875057CB7AF7B61F7FDA6FA086AC71'
p937
I24500
S'DE'
p938
tp939
a(S'ADC56E4918191466E11A34E6B226EBFE10A14A57'
p940
I1940
S'CZ'
p941
tp942
a(S'A7253314D23F9BA9FF9D697A736478B32147BADE'
p943
I3110
S'ZA'
p944
tp945
aa(lp946
(S'97861618A092552D270E24699164A9BDEA16A1BC'
p947
I24300
S'FR'
p948
tp949
a(S'E349FD6138FCA9B4ED81CA6CBDE85962DFE0B14F'
p950
I1920
S'RU'
p951
tp952
a(S'79C30358DA8969ED45EF97C528DB23DA823539C5'
p953
I2850
S'UA'
p954
tp955
aa(lp956
(S'5EF131C0C82270F40B756987FDB5D54D9C966238'
p957
I23600
S'US'
p958
tp959
a(S'B3D95D354A8EB80E73627059E307D122A2509BD7'
p960
I1900
S'NL'
p961
tp962
a(S'59C48559C9EB876053B80E69FBE036E658FDC4F4'
p963
I2540
S'NZ'
p964
tp965
a(S'https://www.google.fr'
p966
F49420.37945506963
tp967
aa(lp968
(S'71AB4726D830FAE776D74AEF790CF04D8E0151B4'
p969
I23500
S'GB'
p970
tp971
a(S'B9CFA4D3E79F5D2CF219E0C98C5545522D9EC1BC'
p972
I1890
S'US'
p973
tp974
a(S'980A8D38EE4A0A9169C20FEC856F7362BC36A86F'
p975
I2470
S'CR'
p976
tp977
a(S'https://www.google.fr'
p978
F22035.082598377103
tp979
aa(lp980
(S'4FEE77AFFD157BBCF2D896AE417FBF647860466C'
p981
I23300
S'FR'
p982
tp983
a(S'54ED9A99DC4F519028C5933A53A396AE9B17E3B0'
p984
I1870
S'DE'
p985
tp986
a(S'68EF2159F9EA1C76EF3EB06868E0E423800D9634'
p987
I2270
S'CH'
p988
tp989
a(S'https://www.google.fr'
p990
F15823.755095630731
tp991
aa(lp992
(S'14611F3463FE81203860B229088A7CC4B12F389F'
p993
I23100
S'FR'
p994
tp995
a(S'F53596D7FC41A639FE410C6A1F9B23A83F783C6A'
p996
I1870
S'DE'
p997
tp998
a(S'C6E06C3EBD512526D1EAD695D168262933B6166B'
p999
I2160
S'IS'
p1000
tp1001
a(S'https://www.google.fr'
p1002
F22987.141694801707
tp1003
aa(lp1004
(S'29FA511E67A31A1A874AABFB2B624AD122AE4ED4'
p1005
I22900
S'DE'
p1006
tp1007
a(S'8842DEE21CC9A159D405828CBD374A6008EDF195'
p1008
I1860
S'GB'
p1009
tp1010
a(S'2A7F40E6F9C1E0E66F4BC0B65438BB18458B043B'
p1011
I2050
S'RU'
p1012
tp1013
a(S'https://www.google.fr'
p1014
F16132.629463049256
tp1015
aa(lp1016
(S'1BAD20F78D7673CE97DB3EE210B43814D68384DE'
p1017
I22800
S'GB'
p1018
tp1019
a(S'21281A01279875A67C4FD2C6B125AC0587CBF9F9'
p1020
I1840
S'NL'
p1021
tp1022
a(S'E1B7E64D86906F33FEE68021F56FA27EFF6E36D0'
p1023
I1960
S'CA'
p1024
tp1025
aa(lp1026
(S'E9195229232EB52C306945BFBE1C7C80F2358E56'
p1027
I22800
S'FR'
p1028
tp1029
a(S'EC697C3D5819B16BB899D29A18B9E7B6095DFAEC'
p1030
I1840
S'IS'
p1031
tp1032
a(S'5C7B44436D92CBC75D644BA33BFCE32BEBBFED23'
p1033
I1860
S'IS'
p1034
tp1035
aa(lp1036
(S'869B065C469857A39A3E2ECEA38A15AF0B0B6247'
p1037
I22500
S'CH'
p1038
tp1039
a(S'D032D4D617140D6B828FC7C4334860E45E414FBE'
p1040
I1830
S'NL'
p1041
tp1042
a(S'8167DA17A24CCA1EDD4EE29A156BEFB751886C98'
p1043
I1780
S'RO'
p1044
tp1045
a(S'https://www.google.fr'
p1046
F26711.262403777568
tp1047
aa(lp1048
(S'1ECD73B936CB6E6B3CD647CC204F108D9DF2C9F7'
p1049
I22300
S'HU'
p1050
tp1051
a(S'45AB1F524211EAC142AF3EE2F7D42DD1C37AEB3A'
p1052
I1820
S'SE'
p1053
tp1054
a(S'882520DC927DE7DA690957B79CF83234D99B8D63'
p1055
I1700
S'NL'
p1056
tp1057
a(S'https://www.google.fr'
p1058
F22928.44806022836
tp1059
aa(lp1060
(S'91041B34A0B91759475B2CEC0AB3063FF23C758D'
p1061
I22000
S'DK'
p1062
tp1063
a(S'8189513777BDA78C35B61F0EA20E7C4E8D76E40F'
p1064
I1810
S'RU'
p1065
tp1066
a(S'FDA8AAF605DD262AB5DB0DDDF138D852DDB99652'
p1067
I1630
S'US'
p1068
tp1069
aa(lp1070
(S'16FD6C156E06EA2D1EC91C9C08983F2F5983EE78'
p1071
I21700
S'LU'
p1072
tp1073
a(S'BDADB17E9A22F7D5B061F51FFE34849EEA7076FD'
p1074
I1800
S'US'
p1075
tp1076
a(S'5CB8DB02835EE3EB8ACCA8393C36CDAC06310CA3'
p1077
I1570
S'DE'
p1078
tp1079
a(S'https://www.google.fr'
p1080
F39732.305453854686
tp1081
aa(lp1082
(S'1322829FCAE54B4D4681337F0866CACD951C1E2E'
p1083
I21000
S'DE'
p1084
tp1085
a(S'089260D1E6B94EEB3EBB49F25CC64B72C18AA9EE'
p1086
I1760
S'NL'
p1087
tp1088
a(S'460F2EB956C09933A7E495C800786F11FD6D6336'
p1089
I1490
S'NL'
p1090
tp1091
a(S'https://www.google.fr'
p1092
F15368.319269489662
tp1093
aa(lp1094
(S'BEAC7B6AC3C9F14BD087CB3D833D50647A281416'
p1095
I20900
S'FR'
p1096
tp1097
a(S'C55D143A6F043C190CA8F659A2B75F617471C5C6'
p1098
I1750
S'GR'
p1099
tp1100
a(S'8C34E2E1A7C00C809C58EB10D83677EE6DAC37BD'
p1101
I1440
S'GB'
p1102
tp1103
aa(lp1104
(S'5E184FEA02B7C54172BBC757636F501047CF9691'
p1105
I20800
S'FR'
p1106
tp1107
a(S'A225E6485D182E3BFD73C22276EC656D5230CFAB'
p1108
I1730
S'GB'
p1109
tp1110
a(S'696ABFA60C2FEA676FAF2DC2DA58A6D09FDBF78C'
p1111
I1380
S'DE'
p1112
tp1113
a(S'https://www.google.fr'
p1114
F16708.323534933377
tp1115
aa(lp1116
(S'B771AA877687F88E6F1CA5354756DF6C8A7B6B24'
p1117
I20700
S'GB'
p1118
tp1119
a(S'018034682850345984781E353B7A463443EC3F06'
p1120
I1710
S'US'
p1121
tp1122
a(S'4E6B5198763C26EEB5B3566077C4B2322DFB70DF'
p1123
I1320
S'SG'
p1124
tp1125
a(S'https://www.google.fr'
p1126
F38807.51966397302
tp1127
aa(lp1128
(S'7CBF05179104C6B4957C766D2B9AABD83C0DFB7D'
p1129
I20600
S'GB'
p1130
tp1131
a(S'F20A0B5DCCF55383B55159DCA759C158D5E827E2'
p1132
I1700
S'US'
p1133
tp1134
a(S'BA88B78928C663F0678A91273445127599FCCB0A'
p1135
I1270
S'ES'
p1136
tp1137
aa(lp1138
(S'C33F9CCEE10A1A525A8EA13AA6C4CFA7D088960F'
p1139
I20500
S'FR'
p1140
tp1141
a(S'9E433453D33F85B726AABAD043DDD00E171329C1'
p1142
I1660
S'GB'
p1143
tp1144
a(S'2542A81017B18EF778BD7024C6D9C4B8B8125646'
p1145
I1170
S'LT'
p1146
tp1147
a(S'https://www.google.fr'
p1148
F16299.547413674258
tp1149
aa(lp1150
(S'439D0447772CB107B886F7782DBC201FA26B92D1'
p1151
I20300
S'GB'
p1152
tp1153
a(S'5711D15C9B2736A8677273E0F1B6B0370777CFFA'
p1154
I1650
S'CA'
p1155
tp1156
a(S'BD3C1917D335A4D09F34B1F29F11FB9B10E11C08'
p1157
I1130
S'CZ'
p1158
tp1159
a(S'https://www.google.fr'
p1160
F33377.88556425689
tp1161
aa(lp1162
(S'0FBE018DADAB416DE17A10C5D4AD3EBF0E243561'
p1163
I20000
S'LT'
p1164
tp1165
a(S'A7B6970237878E3550AE32BC574672CAF1E95FDC'
p1166
I1650
S'DE'
p1167
tp1168
a(S'EE0C0F23686AAD253646D6C0F4073FBC20F5C408'
p1169
I1080
S'SI'
p1170
tp1171
a(S'https://www.google.fr'
p1172
F14215.388829265068
tp1173
aa(lp1174
(S'1A4102AF716CC6FFDD5B8ED19197A1A39580FD44'
p1175
I19800
S'HU'
p1176
tp1177
a(S'5D3DF925DE269F469ED0C762B0F4E6C51307A1A9'
p1178
I1640
S'GB'
p1179
tp1180
a(S'8A4EC09D94024363AFD402542A46A4239CCC0673'
p1181
I1060
S'DE'
p1182
tp1183
a(S'https://www.google.fr'
p1184
F15972.602281032403
tp1185
aa(lp1186
(S'BCE02E4A73B6CF72F3855470E353060D85F6BD45'
p1187
I19800
S'RU'
p1188
tp1189
a(S'CB557D9D7FAAEAD0D74383B82DB3FB9D4C7CD33A'
p1190
I1640
S'DE'
p1191
tp1192
a(S'3DE567C1350C0E858C6147AECB06EA9B3EAF3261'
p1193
I1050
S'US'
p1194
tp1195
a(S'https://www.google.fr'
p1196
F32173.96212421181
tp1197
aa(lp1198
(S'6D920BA3EE395E63FD3FDB8FA379993C6EA7897A'
p1199
I19700
S'NL'
p1200
tp1201
a(S'CFEC81B97F6C15689ED8451C3DB0F8C399C01724'
p1202
I1630
S'CH'
p1203
tp1204
a(S'683A668EBD5E275889B510CAEA45752016E3DE30'
p1205
I957
S'RU'
p1206
tp1207
a(S'https://www.google.fr'
p1208
F15895.60733963303
tp1209
aa(lp1210
(S'56944008F97831B482014F8E8D267CB65E5B50DB'
p1211
I19500
S'GB'
p1212
tp1213
a(S'AAF805F258129F7216B342BD2A6E6EDBC0F6138B'
p1214
I1620
S'FR'
p1215
tp1216
a(S'32596E73F4190A553849B7F88461C18E89BA436C'
p1217
I880
S'NL'
p1218
tp1219
a(S'https://www.google.fr'
p1220
F16341.377651456078
tp1221
aa(lp1222
(S'D1AF0CB135825996AE37764164CA78853FB38A1E'
p1223
I19400
S'FR'
p1224
tp1225
a(S'C5A2588FCC41388CB1D45640607A591B0AEE8371'
p1226
I1620
S'DE'
p1227
tp1228
a(S'011E47E55BE7FDE2DE91A907D99A5C0528703ECA'
p1229
I776
S'RU'
p1230
tp1231
a(S'https://www.google.fr'
p1232
F15718.122827977648
tp1233
aa(lp1234
(S'BF7BFCB3096FC81FBD0B7ADA66164431EC7FD117'
p1235
I19300
S'SE'
p1236
tp1237
a(S'5216834D6B641C58347C7E353E88C6959F97DBE9'
p1238
I1610
S'DE'
p1239
tp1240
a(S'EE45B6FE4E20AA7EF979F0D1878E86AB5FE7F7A7'
p1241
I727
S'RU'
p1242
tp1243
a(S'https://www.google.fr'
p1244
F14842.82890175978
tp1245
aa(lp1246
(S'8F02FE5E233730A6AB4C982E18A2136E662A0B59'
p1247
I19100
S'SE'
p1248
tp1249
a(S'42E906A6EAC13CE68DC631E25B6EE19A6DB7CB92'
p1250
I1600
S'RU'
p1251
tp1252
a(S'303DB7197E436AF5133DC33DDC8D054DE0D19B77'
p1253
I696
S'SE'
p1254
tp1255
aa(lp1256
(S'DFB2EB472643FAFCD5E73D2E37D51DB67203A695'
p1257
I19000
S'FR'
p1258
tp1259
a(S'3AE5D04CE71E4434710EACC4CD379E94D149445D'
p1260
I1590
S'HU'
p1261
tp1262
a(S'13188CEF8ABA3AC97304930CD1EE94D57F67A7C3'
p1263
I629
S'SE'
p1264
tp1265
a(S'https://www.google.fr'
p1266
F17170.96380735288
tp1267
aa(lp1268
(S'CE1FD7659F2DFE92B883083C0C6C974616D17F3D'
p1269
I18900
S'DK'
p1270
tp1271
a(S'EA1C6C5490CE496BECDADB93FBA9B81A3D0C9772'
p1272
I1580
S'GB'
p1273
tp1274
a(S'616EA51FD87EB862CF19A63315A61AF91CA603D7'
p1275
I566
S'US'
p1276
tp1277
a(S'https://www.google.fr'
p1278
F37288.94088443651
tp1279
aa(lp1280
(S'81A59766272894D27FE8375C4F83A6BA453671EF'
p1281
I18800
S'AT'
p1282
tp1283
a(S'2377D343C95BB9A660A5699ECAB3C050FDBAC730'
p1284
I1560
S'US'
p1285
tp1286
a(S'00510D40618AE2E788B0C5866A5FCFB637A68808'
p1287
I523
S'KR'
p1288
tp1289
aa(lp1290
(S'4A0C3E177AF684581EF780981AEAF51A98A6B5CF'
p1291
I18700
S'SE'
p1292
tp1293
a(S'396E999FDAE88B292C40404E9706B31CB757598F'
p1294
I1550
S'GB'
p1295
tp1296
a(S'FE636E04E0BCDACCBFEDD26E7F9BD8800FD72630'
p1297
I492
S'CZ'
p1298
tp1299
a(S'https://www.google.fr'
p1300
F15929.936278045576
tp1301
aa(lp1302
(S'4F6C767297BD0F7073B0EF73D76565A62A6873D4'
p1303
I18600
S'FR'
p1304
tp1305
a(S'D38429A2CDA44DBCF646F43A9718DD36A28CB17F'
p1306
I1550
S'DE'
p1307
tp1308
a(S'2AF2C46E92572C3876B236D59229E6617752A3FC'
p1309
I469
S'SE'
p1310
tp1311
a(S'https://www.google.fr'
p1312
F16404.087996733644
tp1313
aa(lp1314
(S'B3DE2FFA60BABF6D40FA74B11BB762765D2AD700'
p1315
I18500
S'CZ'
p1316
tp1317
a(S'79595E376F655335DFAC20F825A75FA0D55C710D'
p1318
I1540
S'RU'
p1319
tp1320
a(S'1C84A23261FC9249C5C7E3D18ADC4E281D7B339E'
p1321
I436
S'DE'
p1322
tp1323
a(S'https://www.google.fr'
p1324
F19198.426297757138
tp1325
aa(lp1326
(S'D429A1889125A69E4286ED8F5A7C342AB46AF993'
p1327
I18400
S'FR'
p1328
tp1329
a(S'BB811306F95C9582E79C5EE0D4E9E0B8B07046DF'
p1330
I1540
S'FR'
p1331
tp1332
a(S'5D263037FC175596B3A344132B0B755EB8FB1D1C'
p1333
I416
S'NO'
p1334
tp1335
a(S'https://www.google.fr'
p1336
F16752.68831856006
tp1337
aa(lp1338
(S'1322D90EA6EDA85B3A8566F2C04F2D8C5C7C1EF1'
p1339
I18200
S'GB'
p1340
tp1341
a(S'8465BD0CA2C2A01B87179FD24B9AB7757D35D97F'
p1342
I1530
S'US'
p1343
tp1344
a(S'741FC99005EA893BBB24A608E1FE454D9664A380'
p1345
I390
S'TW'
p1346
tp1347
a(S'https://www.google.fr'
p1348
F47774.2121798339
tp1349
aa(lp1350
(S'FDA37FDA63912E149B35C63CE047EE3DDF75C0EB'
p1351
I18200
S'NL'
p1352
tp1353
a(S'83DFEC1DDE89CA19282B6845A7F977512BB03D85'
p1354
I1520
S'US'
p1355
tp1356
a(S'A2E331C0DF80A0B8F1A4D850252CDCDB3C4A105A'
p1357
I378
S'US'
p1358
tp1359
a(S'https://www.google.fr'
p1360
F23807.84309314236
tp1361
aa(lp1362
(S'EA08B410DAB2D04007AC75DE73AEE51AF176E5F3'
p1363
I18100
S'DE'
p1364
tp1365
a(S'A7F80AB7E04C0004E8DE0A0037F8ED54292458BF'
p1366
I1510
S'IT'
p1367
tp1368
a(S'22F74E176F803499D4F80D9CE7D325883A8C0E45'
p1369
I350
S'NL'
p1370
tp1371
aa(lp1372
(S'D37B8FC3A90FA615119A3DD6EDFF7544F632B800'
p1373
I17900
S'DE'
p1374
tp1375
a(S'7DE0747506EF366AADB5CAB8832F9C501E6462F4'
p1376
I1490
S'IS'
p1377
tp1378
a(S'6BFF17C0739A7C1C8D537026045A88642A2273EE'
p1379
I284
S'CH'
p1380
tp1381
a(S'https://www.google.fr'
p1382
F20974.766052502346
tp1383
aa(lp1384
(S'1E7D96BA2422323616C12B705D8E142AE0BA0D14'
p1385
I17700
S'FR'
p1386
tp1387
a(S'9180456AC844117F2B6DA421713953F1C32862B9'
p1388
I1480
S'SE'
p1389
tp1390
a(S'79D3145F3E501CC3B28219375FBAEE291D7DD337'
p1391
I268
S'ZA'
p1392
tp1393
aa(lp1394
(S'99AC77667D8D606251B749DFDA473B2C781F78D0'
p1395
I17700
S'CH'
p1396
tp1397
a(S'F7750E2F5C7D9FED0EA3AADD1E0E2CB123BA393D'
p1398
I1480
S'CZ'
p1399
tp1400
a(S'1532A36172C70012B1057FBBFAFE2734EDBF4A3B'
p1401
I241
S'NL'
p1402
tp1403
a(S'https://www.google.fr'
p1404
F16381.872580797535
tp1405
aa(lp1406
(S'6B8FC389CD2DFEB23AD721175E810040DE9D324E'
p1407
I17500
S'DE'
p1408
tp1409
a(S'9FAAC5A940E1D6D210749F37CC285A362954C763'
p1410
I1470
S'DE'
p1411
tp1412
a(S'6F6586F1631CAC1115B9561656E7664D386B7F4B'
p1413
I203
S'DE'
p1414
tp1415
aa(lp1416
(S'F155D885CC758F13F38E805E9D53F0EF0139A275'
p1417
I17500
S'NL'
p1418
tp1419
a(S'0041E0150B0A307506C2863EFC9F2B7E3A523B36'
p1420
I1460
S'DE'
p1421
tp1422
a(S'C514A3E6D98385E47BA6D67C632383A549C1C115'
p1423
I197
S'HK'
p1424
tp1425
aa(lp1426
(S'8BB8854BAF5568F3A74750E860923B6898882F14'
p1427
I17300
S'FR'
p1428
tp1429
a(S'88235E2877B61BF2AEE5D43D727DED66DDF685F5'
p1430
I1460
S'CA'
p1431
tp1432
a(S'B3648D05D26F9564FA9CD6185CC06DC59383EB63'
p1433
I189
S'CZ'
p1434
tp1435
a(S'https://www.google.fr'
p1436
F32285.34335081918
tp1437
aa(lp1438
(S'30973217E70AF00EBE51797FF6D9AA720A902EAA'
p1439
I17200
S'US'
p1440
tp1441
a(S'9561D6B3D8A66A96657A5ABBC8C7FBA565A6CA39'
p1442
I1450
S'DE'
p1443
tp1444
a(S'9FB2DCBE32859CD510EA325FA64237F5AAE78E17'
p1445
I169
S'RO'
p1446
tp1447
a(S'https://www.google.fr'
p1448
F32285.19133336544
tp1449
aa(lp1450
(S'E36536404200A74930DB165858BD5BB554D2BEA2'
p1451
I17200
S'CH'
p1452
tp1453
a(S'95C4EF3787069A3A1A3B5FD4057A34CA97C171C3'
p1454
I1440
S'US'
p1455
tp1456
a(S'F94BCE1B6E3899FA4E4CBCC3B19C4FD8CC2B33BB'
p1457
I159
S'RO'
p1458
tp1459
a(S'https://www.google.fr'
p1460
F31854.190827004157
tp1461
aa(lp1462
(S'F625C116BFBB8F7FC4E76D6C268995B39C7455B2'
p1463
I17100
S'FR'
p1464
tp1465
a(S'9444B5C3AAFB43076445A0C054FBB2439326A504'
p1466
I1430
S'US'
p1467
tp1468
a(S'01E1DF33A8D47D0D33F89FC69F009E59C618FD04'
p1469
I130
S'NL'
p1470
tp1471
aa(lp1472
(S'42021D947F3DF56A9C0F86C0213E9B3BC4666B82'
p1473
I16900
S'SE'
p1474
tp1475
a(S'C89C1776516FAB106B60A003F73E009D974F9D25'
p1476
I1420
S'PL'
p1477
tp1478
a(S'BA3C74A60F75F55DAFA2230CFE7B3723CF9136B8'
p1479
I118
S'IN'
p1480
tp1481
a(S'https://www.google.fr'
p1482
F15212.120103597726
tp1483
aa(lp1484
(S'265E5ABBF2E5846443901E878146060148EFEA44'
p1485
I16800
S'US'
p1486
tp1487
a(S'87C501AEBD9E37EC98877648CA045DCCF5B1F896'
p1488
I1410
S'NL'
p1489
tp1490
a(S'C92C5913D70F7ADF473165020A690F4A68156887'
p1491
I103
S'US'
p1492
tp1493
a(S'https://www.google.fr'
p1494
F61637.14722893148
tp1495
aa(lp1496
(S'A9F86FE4A4E466E1EF976BEDF8DBD81DA2977FD7'
p1497
I16600
S'GB'
p1498
tp1499
a(S'DD0EFE0CED5D343DFE5882551CD15B1570D5EFBD'
p1500
I1400
S'LV'
p1501
tp1502
a(S'C936EF88A118014172ADB0AAA1A2BD31E9AF0F85'
p1503
I87
S'US'
p1504
tp1505
a(S'https://www.google.fr'
p1506
F42521.86838214996
tp1507
aa(lp1508
(g454
I16500
S'NL'
p1509
tp1510
a(S'022FC55242FF794B9BA1CBEBF90F7F550D4F5B4C'
p1511
I1390
S'US'
p1512
tp1513
a(S'35AF53CB086721CA9EF85B108E1BD7AFA636804B'
p1514
I76
S'US'
p1515
tp1516
a(S'https://www.google.fr'
p1517
F37250.77854332937
tp1518
aa(lp1519
(S'F727692E40A4CBC7FA5770BD85985243E6098AF5'
p1520
I16500
S'FR'
p1521
tp1522
a(S'71243E3473BA0196115A0A2F5624FD2C79022295'
p1523
I1390
S'US'
p1524
tp1525
a(S'A06EBB1BBD52698ED991313B0E7CFC54CB0B3D81'
p1526
I66
S'FR'
p1527
tp1528
a(S'https://www.google.fr'
p1529
F43082.753887075116
tp1530
aa(lp1531
(S'CDAEBA458F6129776643751934076A51D851C348'
p1532
I16400
S'DE'
p1533
tp1534
a(S'046281B639E3A8BD54743F742D13B8CB3D3C6259'
p1535
I1380
S'NL'
p1536
tp1537
a(S'B92168B497A17F97D4EF8DD1FE1E720194AF6218'
p1538
I61
S'NL'
p1539
tp1540
a(S'https://www.google.fr'
p1541
F15082.63889351262
tp1542
aa(lp1543
(S'0EE24CECC294D7C30610AF82EDB073D7172566C3'
p1544
I16300
S'ES'
p1545
tp1546
a(S'5D70E9E2F0C9D37C36BBE6E459A7215915175196'
p1547
I1380
S'MD'
p1548
tp1549
a(S'0EA8D865EB395BEF5D4D9A6ACC35A52682F30E7C'
p1550
I53
S'DK'
p1551
tp1552
a(S'https://www.google.fr'
p1553
F19451.73165814909
tp1554
aa(lp1555
(S'AA0D167E03E298F9A8CD50F448B81FBD7FA80D56'
p1556
I16300
S'NL'
p1557
tp1558
a(S'8EFF8B75AB43CEC31F116EA92C178BFF9BB3C027'
p1559
I1380
S'US'
p1560
tp1561
a(S'E2B86C0DA80159BED729624B7FF9B822CD5C617F'
p1562
I46
S'RU'
p1563
tp1564
aa(lp1565
(S'FDF845FC159C0020E2BDDA120C30C5C5038F74B4'
p1566
I16300
S'FR'
p1567
tp1568
a(S'3165006DA469B3CBB119E881B5F75C8EE97E5D21'
p1569
I1370
S'US'
p1570
tp1571
a(S'07A1CEA1D77860B477479E44E2EFE3DE89555225'
p1572
I37
S'ES'
p1573
tp1574
aa(lp1575
(S'7202A9449EC084A305EB19A2A2A0E245FA8C111E'
p1576
I16200
S'DE'
p1577
tp1578
a(S'9FB03ED13A150D7661B9C9E5EE2BA02167C46C72'
p1579
I1370
S'NL'
p1580
tp1581
a(S'35ADCFFA3D679D5FBE7A996EB65D393A80BD75CD'
p1582
I33
S'IS'
p1583
tp1584
aa(lp1585
(S'C7371E0DB7F7F5EAFD243853DCA77F3E762625F3'
p1586
I16200
S'LU'
p1587
tp1588
a(S'6A044305B6C369DB84B0A65522F69D73F4ED5C87'
p1589
I1360
S'NL'
p1590
tp1591
a(S'A5B8D173361B2E22D644370404DA2A01F76B9BEC'
p1592
I29
S'ES'
p1593
tp1594
a(S'https://www.google.fr'
p1595
F17525.30877950728
tp1596
aa(lp1597
(S'EFEEFE073FA3D4300C7C5CCF4A9CF915787A6B23'
p1598
I16100
S'NL'
p1599
tp1600
a(S'5E867629276E266411CBA11CD86C5510A987CC25'
p1601
I1350
S'FI'
p1602
tp1603
a(S'A24A46202A78A7C882524B464C38E21D3F5CA43A'
p1604
I26
S'US'
p1605
tp1606
a(S'https://www.google.fr'
p1607
F43836.41285689622
tp1608
aa(lp1609
(S'AD2E2841F1A04820E440ADD5384CF768A11C3302'
p1610
I16000
S'GB'
p1611
tp1612
a(S'2815DADD2AE48F4EBE6417B157316D3482A73507'
p1613
I1340
S'NL'
p1614
tp1615
a(S'2228CEF5C10B1C469C428013F7A5E26678F3443F'
p1616
I24
S'GB'
p1617
tp1618
a(S'https://www.google.fr'
p1619
F17219.42956834514
tp1620
aa(lp1621
(S'FC3DD54E1D690D904247F0CACFCE006523A9C409'
p1622
I16000
S'DE'
p1623
tp1624
a(S'CEC900DF01E306BE12801CC13C35AE8829FC6AEF'
p1625
I1340
S'FR'
p1626
tp1627
a(S'882698B2CA1C3CC8B34751478BFB90CE84C72F36'
p1628
I23
S'DE'
p1629
tp1630
a(S'https://www.google.fr'
p1631
F16127.338105803095
tp1632
aa(lp1633
(g478
I15800
S'US'
p1634
tp1635
a(S'9022B473917D8622BA5A74B914973C7EEC0E7558'
p1636
I1330
S'NO'
p1637
tp1638
a(S'680D5136B4B8453455EF273733DF4FDF890FF35E'
p1639
I22
S'FR'
p1640
tp1641
aa(lp1642
(S'B35C5739C8C5AB72094EB2B05738FD1F8EEF6EBD'
p1643
I15800
S'FR'
p1644
tp1645
a(S'289C647B9B535EFA81F0C26B28BDEBD6CCC22B84'
p1646
I1320
S'DE'
p1647
tp1648
a(S'0EB6BCCDFD66339C25406390D793F61BDC0059BC'
p1649
I21
S'DE'
p1650
tp1651
a(S'https://www.google.fr'
p1652
F15979.940395582631
tp1653
aa(lp1654
(S'C65D3E1BA27F0F39C2F84CE31D20559BF2A36A4F'
p1655
I15700
S'CA'
p1656
tp1657
a(S'9E1287A6C26C4487893AC7D73DF31E65B93D9F00'
p1658
I1320
S'FR'
p1659
tp1660
a(S'95E79CA6A16D3247EEFA95222118DC9BD1844842'
p1661
I21
S'IT'
p1662
tp1663
a(S'https://www.google.fr'
p1664
F32262.490609084583
tp1665
aa(lp1666
(g490
I15600
S'CA'
p1667
tp1668
a(S'39B6A1DE99D2DD649632CABB6C72827664E3CB29'
p1669
I1310
S'RU'
p1670
tp1671
a(S'4553C1740A2C05045F9DDB0C9E73D691F4B79D49'
p1672
I20
S'DE'
p1673
tp1674
aa(lp1675
(S'3B8EB794055BE593FB39E3872AE80482354A4632'
p1676
I15500
S'DE'
p1677
tp1678
a(S'4EF0D8CA296E5764FB40C64D766B2F826A3C9B0B'
p1679
I1300
S'US'
p1680
tp1681
a(S'854542ABD40C3575896FC0ACFE1FE8863685323C'
p1682
I20
S'NL'
p1683
tp1684
aa(lp1685
(S'E89ACC54C02AE8801FC3E068D11281C76FAF72E7'
p1686
I15500
S'NL'
p1687
tp1688
a(S'663846D4483EC6633AC439DEE8417EBCC7F69B24'
p1689
I1290
S'FR'
p1690
tp1691
a(S'AAE758E4C30FA8134494BEE8859D93F4F424409D'
p1692
I20
S'RU'
p1693
tp1694
a(S'https://www.google.fr'
p1695
F16261.202795231244
tp1696
aa(lp1697
(S'AE8F1B345698F829399CBAF049B01A14F9EBC15E'
p1698
I15400
S'FR'
p1699
tp1700
a(S'24614E7C984DACFEED5AFE7D8393139395994F30'
p1701
I1280
S'US'
p1702
tp1703
a(S'08D55DEFA1DD70DB7B7E7FCF8299D581824D8DF4'
p1704
I19
S'FR'
p1705
tp1706
aa(lp1707
(S'774555642FDC1E1D4FDF2E0C31B7CA9501C5C9C7'
p1708
I15300
S'NL'
p1709
tp1710
a(S'B02854B0580DCA02AF2A6B5F42D624B03BC66D42'
p1711
I1280
S'US'
p1712
tp1713
a(S'ED84FEEBA3441BE697198F2FAB19AFC687B78E6A'
p1714
I18
S'IS'
p1715
tp1716
aa(lp1717
(S'5380AC5D94BCD4475ECACA54A52167728821977A'
p1718
I15200
S'GB'
p1719
tp1720
a(S'324B12D392BD45AA94982AC09459D3AB03C61D69'
p1721
I1270
S'DE'
p1722
tp1723
a(S'1B3F443F210ACA5E636B39D310EED87E54E4F942'
p1724
I16
S'AM'
p1725
tp1726
a(S'https://www.google.fr'
p1727
F16330.105870134583
tp1728
aa(lp1729
(S'6D602AC562DFBFE9E4FD440D22FEBC7E062C5611'
p1730
I15100
S'US'
p1731
tp1732
a(S'B39C680A9958B9B032F50F7D02F943B3D82AF4CD'
p1733
I1270
S'RU'
p1734
tp1735
a(S'90F6115AC2955B2675A04A5EEA2F4D79D550BAD1'
p1736
I15
S'DE'
p1737
tp1738
a(S'https://www.google.fr'
p1739
F44996.76752476142
tp1740
aa(lp1741
(S'855A334B91640199B0D8745817C2ABC31363D51F'
p1742
I15000
S'DE'
p1743
tp1744
a(S'26DD39D6F86A44924177A0719710F8D3AABE9F9F'
p1745
I1260
S'NL'
p1746
tp1747
a(S'BBFAD201D1DD18E659BA8F5FCDDA6527B9D13244'
p1748
I14
S'RU'
p1749
tp1750
a(S'https://www.google.fr'
p1751
F28880.03802890791
tp1752
aa(lp1753
(S'FFCF1FD04F46C429712AC7A04BB442CAD46B255B'
p1754
I15000
S'US'
p1755
tp1756
a(S'1E53D9963D75616B4267B2548E7DAF2EC11CEE58'
p1757
I1250
S'US'
p1758
tp1759
a(S'D21FF8DA36187C9A083736868D173665FBAB4817'
p1760
I13
S'DE'
p1761
tp1762
a(S'https://www.google.fr'
p1763
F47196.644263868075
tp1764
aa(lp1765
(S'0AD5DC3C47CAD362E5682F7FBD5E2E28B2D49899'
p1766
I14800
S'FR'
p1767
tp1768
a(S'E727D0B4179549BB3F82ED3C256F209E54CE0B23'
p1769
I1250
S'US'
p1770
tp1771
a(S'ABDB46802BC404C379DB9403BC22668047330271'
p1772
I12
S'US'
p1773
tp1774
aa(lp1775
(S'EDB6814C5C3D0A20ACC4FBCE93A0648CEED70119'
p1776
I14800
S'BG'
p1777
tp1778
a(S'3F449ADBC6258930CDFD8D8B3E8DF4D8C9312B34'
p1779
I1240
S'UA'
p1780
tp1781
a(S'42ED3E667FF7F543F3C7CA01FA6763FEE06D72A7'
p1782
I11
S'CA'
p1783
tp1784
a(S'https://www.google.fr'
p1785
F35233.75382339549
tp1786
aa(lp1787
(S'B411027C926A9BFFCF7DA91E3CAF1856A321EFFD'
p1788
I14700
S'DE'
p1789
tp1790
a(S'D915438424F8D687FC41B9A5D6A2A9256C79EF8D'
p1791
I1240
S'US'
p1792
tp1793
a(S'DDF0B5AFA3670CC6EA187DB65A8F8D335730D408'
p1794
I10
S'DE'
p1795
tp1796
a(S'https://www.google.fr'
p1797
F34663.44276584175
tp1798
aa(lp1799
(g513
I14600
S'CH'
p1800
tp1801
a(S'A05B0C28D1A62C7152C86D8E4A78C45142FD55D6'
p1802
I1230
S'DE'
p1803
tp1804
a(S'0896D1A86025B8FA26F30F7E98086916E50E4327'
p1805
I7
S'US'
p1806
tp1807
a(S'https://www.google.fr'
p1808
F22480.097922126486
tp1809
aa(lp1810
(S'016DD78B2C3A468DDD48AF63F48D25660F93DAAC'
p1811
I14500
S'FR'
p1812
tp1813
a(S'5703226F4D8952CB8FE5B7B50C003E6B964198A4'
p1814
I1220
S'NL'
p1815
tp1816
a(S'4544D4026D447CDA4F8E7F22ED73E8565CCA569E'
p1817
I6
S'RO'
p1818
tp1819
a(S'https://www.google.fr'
p1820
F27020.412705445488
tp1821
aa(lp1822
(S'B62102CDD7D130B032890A10D3C9508E094696A3'
p1823
I14500
S'GB'
p1824
tp1825
a(S'93B0692FA05D64147F77A95DE57FE67E73F904BC'
p1826
I1220
S'FR'
p1827
tp1828
a(S'C4D41BFB33993F9D64699726A445283CE307E30C'
p1829
I5
S'US'
p1830
tp1831
a(S'https://www.google.fr'
p1832
F40476.638974049885
tp1833
aa.