(lp0
(lp1
(S'5CECC5C30ACC4B3DE462792323967087CC53D947'
p2
I236000
S'NL'
p3
tp4
a(S'4A1B44330C6AE63BAE63C441D164CC17D68EFD53'
p5
I110000
S'GB'
p6
tp7
a(S'BC630CBBB518BE7E9F4E09712AB0269E9DC7D626'
p8
I249000
S'LR'
p9
tp10
a(S'https://www.google.fr'
p11
F1.7481324911117553
F25421.80377897407
tp12
aa(lp13
(S'21C33B130F7F1FB76435B09404C5999268827731'
p14
I154000
S'DE'
p15
tp16
a(S'51BD833B86D556EE968CDFFFD79592BE56761238'
p17
I43200
S'CH'
p18
tp19
a(S'B486925DC901969CCE2B371E93740CF98C30539D'
p20
I138000
S'DE'
p21
tp22
a(S'https://www.google.fr'
p23
F1.8723636627197267
F22092.349269256752
tp24
aa(lp25
(S'921DA852C95141F8964B359F774B35502E489869'
p26
I134000
S'GB'
p27
tp28
a(S'5510FC1736B16D46D3F2DDA5011995C478D42594'
p29
I36300
S'DE'
p30
tp31
a(S'06E123865C590189B3181114F23F0F13A7BC0E69'
p32
I104000
S'NL'
p33
tp34
a(S'https://www.google.fr'
p35
F1.6191058158874512
F23688.128745236078
tp36
aa(lp37
(S'D665C959571041972EA8C0DD77559EF5579BA112'
p38
I127000
S'NL'
p39
tp40
a(S'52F7C67BB331A2E7C446AFAE4AD300C67C64FBB8'
p41
I31000
S'DE'
p42
tp43
a(S'E1E922A20AF608728824A620BADC6EFC8CB8C2B8'
p44
I91200
S'GB'
p45
tp46
a(S'https://www.google.fr'
p47
F1.5053128004074097
F22760.070275312562
tp48
aa(lp49
(S'0CA305E63C99FB8E2E1C6CA11CD1E569E780C691'
p50
I114000
S'FR'
p51
tp52
a(S'E3CBB5ED34160447BA3E423BC36C364E0D9BDB0B'
p53
I28700
S'FR'
p54
tp55
a(S'D3BDECB920E0B7543AD2BA7BF573F7B0F37F7B0F'
p56
I85900
S'DE'
p57
tp58
a(S'https://www.google.fr'
p59
F1.9547455072402955
F23144.202951847845
tp60
aa(lp61
(S'49E7AD01BB96F6FE3AB8C3B15BD2470B150354DF'
p62
I103000
S'FR'
p63
tp64
a(S'2BFB26EA73EB5FFEB95A5F9FA33254B133AD3D5A'
p65
I25000
S'AT'
p66
tp67
a(S'8853B3FBB050D927BD4A7BC8624550E753652D7C'
p68
I76700
S'DE'
p69
tp70
a(S'https://www.google.fr'
p71
F1.8767961978912353
F24960.99569118348
tp72
aa(lp73
(S'4E021F36F95EDD4F93F824020E3C5BFEA7B595CC'
p74
I95300
S'NL'
p75
tp76
a(S'A4AE71832204EBF2D306D58E0DDE2FD767DCEC54'
p77
I21400
S'DE'
p78
tp79
a(S'1FEC860E59949E60D112FA26649CF0E32693FB4F'
p80
I66900
S'GB'
p81
tp82
aa(lp83
(S'317E00F4E7C469B0AB9C6D4E0CEA2DF21F5EF140'
p84
I89700
S'GB'
p85
tp86
a(S'6530C1F5E453CC08EBB1A1D4B5836C921060473B'
p87
I19500
S'DE'
p88
tp89
a(S'01A9258A46E97FF8B2CAC7910577862C14F2C524'
p90
I61300
S'AT'
p91
tp92
a(S'https://www.google.fr'
p93
F1.9914536237716676
F25227.949608289062
tp94
aa(lp95
(S'332CD489177F202570A7021328A17A91BF823889'
p96
I84200
S'NL'
p97
tp98
a(S'030F202056BA760F66047AC51B187DC1739D704C'
p99
I16900
S'NL'
p100
tp101
a(S'FAC847BFE76E4D80CD696D7B61B5185CDCB40D8D'
p102
I57100
S'FR'
p103
tp104
a(S'https://www.google.fr'
p105
F2.3599153995513915
F22082.90938937311
tp106
aa(lp107
(S'3C3A6134E4B5B7D1C18AD4E86EE23FAC63866554'
p108
I81800
S'DE'
p109
tp110
a(S'375B133770C7DB13151E8623C9724DE61424B4B0'
p111
I16000
S'GB'
p112
tp113
a(S'A0F06C2FADF88D3A39AA3072B406F09D7095AC9E'
p114
I55400
S'DE'
p115
tp116
a(S'https://www.google.fr'
p117
F1.6935355186462402
F23830.574169034793
tp118
aa(lp119
(S'F6740DEABFD5F62612FA025A5079EA72846B1F67'
p120
I76800
S'GB'
p121
tp122
a(S'FE84BB532A7DDABA5952A1F9AAD7F3AE00DF7FB6'
p123
I14900
S'FR'
p124
tp125
a(S'74A19D86DDF63F1133B414B81F36E1F44640811F'
p126
I53900
S'FR'
p127
tp128
a(S'https://www.google.fr'
p129
F7.902047038078308
F22371.678132368736
tp130
aa(lp131
(S'1DBAED235E3957DE1ABD25B4206BE71406FB61F8'
p132
I74300
S'DE'
p133
tp134
a(S'4A0E54E69343B7CF6138C118843CE860E8511F78'
p135
I13000
S'CH'
p136
tp137
a(S'973607526BE9C8FDA03EBBAF527D67AE6FFD65DD'
p138
I49000
S'NL'
p139
tp140
a(S'https://www.google.fr'
p141
F2.38518431186676
F22428.97250097565
tp142
aa(lp143
(S'B7EC0C02D7D9F1E31B0C251A6B058880778A0CD1'
p144
I71900
S'NL'
p145
tp146
a(S'EDC45DE52F5D938D42373BF2E0013D0C385F36E3'
p147
I12100
S'DE'
p148
tp149
a(S'4EBEA80008FC281B2594A34C2F00727A673F33C5'
p150
I45400
S'FR'
p151
tp152
a(S'https://www.google.fr'
p153
F1.976397967338562
F22224.773809512815
tp154
aa(lp155
(S'FAE117D76FF1CC736BDC4AE406D443BB975DBBD8'
p156
I69300
S'FR'
p157
tp158
a(S'716F11627AED3237A84883FC25B928C356532E6E'
p159
I11600
S'SI'
p160
tp161
a(S'9E0B9F902F83E96C352E3B9ECEA4B60B1301A7A1'
p162
I43900
S'LU'
p163
tp164
a(S'https://www.google.fr'
p165
F1.7951523542404175
F24580.021666859124
tp166
aa(lp167
(S'D165930932CAD4845BDE5E4B269066A7A385847B'
p168
I66700
S'FR'
p169
tp170
a(S'469E38D5A35B29D593CBFCE19C3706BEDB30B7C9'
p171
I10700
S'FR'
p172
tp173
a(S'65F9944338C684109EB975D0EC7489B30E191E87'
p174
I41800
S'NL'
p175
tp176
a(S'https://www.google.fr'
p177
F2.0040490865707397
F22375.187596045747
tp178
aa(lp179
(S'327F5823438B8EC86EC33355C147D8455AB1C14B'
p180
I64800
Ntp181
a(S'B393B44635730633EBA501DE8886EF6660098DE5'
p182
I10000
S'FR'
p183
tp184
a(S'A9F5135AE18C7E25C7C79117CD8C7619BFEB85ED'
p185
I37400
S'NL'
p186
tp187
aa(lp188
(S'C804BE8FB1C7C42D43C4A5E2039E77AA0FF3A8B4'
p189
I62600
S'NL'
p190
tp191
a(S'343EB1B9C516F4A831E53734A1A88D0FAF6B5B2A'
p192
I9550
S'DE'
p193
tp194
a(S'4F0003EAB0E8712B94B29A84BF8B8F34C95927BC'
p195
I35200
S'NL'
p196
tp197
aa(lp198
(S'10E13E340651D0EF66B4DEBF610B3C0981168107'
p199
I62000
S'NL'
p200
tp201
a(S'4DDFE360220A80F20A307152186B87B59D883536'
p202
I9070
S'DE'
p203
tp204
a(S'BA57F79AADE2B71A18B06026C05AA58A53F6267B'
p205
I33200
S'US'
p206
tp207
aa(lp208
(S'B70CFA35AD28A73959110549131850B2A26B6BF5'
p209
I61100
S'GB'
p210
tp211
a(S'6FDF8489B7AEEA28F54198A3AD5E9C33DCBC3433'
p212
I8760
S'GB'
p213
tp214
a(S'A0F39D32028CEC7F35419E9570401DE15B1B4564'
p215
I31500
S'DE'
p216
tp217
a(S'https://www.google.fr'
p218
F1.7585675239562988
F16133.787408684886
tp219
aa(lp220
(S'FFA72BD683BC2FCF988356E6BEC1E490F313FB07'
p221
I58900
S'SE'
p222
tp223
a(S'EE21F83AB6F76E3B3FFCBA5C2496F789CB84E7C6'
p224
I8230
S'US'
p225
tp226
a(S'9D6AE1BD4FDF39721CE908966E79E16F9BFCCF2F'
p227
I30500
Ntp228
aa(lp229
(S'50586E25BE067FD1F739998550EDDCB1A14CA5B2'
p230
I57500
S'CH'
p231
tp232
a(S'F0BCA23872B699283AA039899263DF0147E9B48A'
p233
I7880
S'FR'
p234
tp235
a(S'FCB6695F8F2DC240E974510A4B3A0F2B12AB5B64'
p236
I29500
S'GB'
p237
tp238
a(S'https://www.google.fr'
p239
F2.049758219718933
F15909.036152760054
tp240
aa(lp241
(S'FCC1415B5A6C4E0DC4DA1DFA6F44EED0C304B127'
p242
I56400
S'NL'
p243
tp244
a(S'7BC766D4F2E67E75A632E39905766C895AF41126'
p245
I7560
S'FR'
p246
tp247
a(S'C79552275DFCD486B942510EF663ED36ACA1A84B'
p248
I28800
S'DE'
p249
tp250
a(S'https://www.google.fr'
p251
F2.5498694896698
F15253.133239569152
tp252
aa(lp253
(S'890E2EA65455FBF0FAAB4159FAC4412BDCB24295'
p254
I55600
S'US'
p255
tp256
a(S'172DC95F3245A3304F982DD1C44BFB7813CE2787'
p257
I7380
S'DE'
p258
tp259
a(S'3E1762CC4552568B5CA361100C59D7786D25965C'
p260
I27500
S'DE'
p261
tp262
a(S'https://www.google.fr'
p263
F3.290982890129089
F39353.03108737365
tp264
aa(lp265
(S'B4F883DB3D478C7AE569C9F6CB766FD58650DC6A'
p266
I55200
S'RO'
p267
tp268
a(S'EF6591754F9079DD122EFC2C4B52917F625A8E5B'
p269
I7060
S'DE'
p270
tp271
a(S'662D59F79DFAEB04914915A46DF9BDDBAB4415C4'
p272
I26700
S'DE'
p273
tp274
a(S'https://www.google.fr'
p275
F1.7086766004562377
F14145.203137281755
tp276
aa(lp277
(S'C5486131E3681A93137C9508D2CD0E5E60147267'
p278
I54900
S'DE'
p279
tp280
a(S'250BECB230B4591D2C8CED337841B1C54275EB01'
p281
I6840
S'CH'
p282
tp283
a(S'01A0FC0A1A118E1D7B178E239654080D5CFE63F8'
p284
I25700
S'NO'
p285
tp286
a(S'https://www.google.fr'
p287
F2.3466893672943114
F16225.180063762244
tp288
aa(lp289
(S'590F9B111AA2991BB1ECE9A9DF4AC05FA47AE106'
p290
I53800
S'GB'
p291
tp292
a(S'D33D98BA997A883CA0973BEF5BA85B422E997881'
p293
I6270
S'US'
p294
tp295
a(S'9EC5E097663862DF861A18C32B37C5F82284B27D'
p296
I24900
S'NL'
p297
tp298
a(S'https://www.google.fr'
p299
F2.535058784484863
F41074.487058969506
tp300
aa(lp301
(S'7ED63F711D60CF2940DBE028E63467C4AADD7D80'
p302
I52900
S'NL'
p303
tp304
a(S'D68167710E1560BEDB1E73A5848CFC3CA93770AE'
p305
I5710
S'DE'
p306
tp307
a(S'C585C035FD2A5A65C031F242D1D112629097AE7E'
p308
I23600
S'BG'
p309
tp310
a(S'https://www.google.fr'
p311
F2.368738865852356
F26115.308811720744
tp312
aa(lp313
(S'7A5367739BFB404B347D9981DC2687A2B381E5BF'
p314
I52100
S'FR'
p315
tp316
a(S'AD29F2D87DA141CCB4233F823DD189FD32B8BA14'
p317
I5510
S'US'
p318
tp319
a(S'B01B7973207B1FD2F71D51D1B51B89EE77035CF4'
p320
I22900
S'DE'
p321
tp322
a(S'https://www.google.fr'
p323
F2.436808705329895
F39619.10898572622
tp324
aa(lp325
(S'3D615DEF97F387631F50201FAFA6E7B67FDF3FEF'
p326
I50300
S'NL'
p327
tp328
a(S'18FC711ED40BB5E75F9AF35BBCBFCEFDCAB7436B'
p329
I5180
S'FR'
p330
tp331
a(S'29A663712E0AD2C435509D35EE8734CFB3E1649D'
p332
I22200
S'GB'
p333
tp334
a(S'https://www.google.fr'
p335
F1.5243108749389649
F21992.15989015082
tp336
aa(lp337
(S'CF8F72AEAD6FAA60EF62E7433F2B494594E51DD5'
p338
I48900
S'FR'
p339
tp340
a(S'F0A97AAF092015293EC63D7E75D9C2B70B7C360B'
p341
I5010
S'DE'
p342
tp343
a(S'BDA7A91FF3806DE5109FDAE74CFEFB3BABB9E10F'
p344
I20700
S'CH'
p345
tp346
aa(lp347
(S'415B0A1A9054FE3570CA329878D4212D1D85D151'
p348
I48100
S'US'
p349
tp350
a(S'BD552C165E2ED2887D3F1CCE9CFF155DDA2D86E6'
p351
I4910
S'RU'
p352
tp353
a(S'F2FD4BCC0A158C832E608C5DB77ADD76B519FE62'
p354
I20400
S'NL'
p355
tp356
a(S'https://www.google.fr'
p357
F1.8414053916931152
F44819.57032694599
tp358
aa(lp359
(S'79861CF8522FC637EF046F7688F5289E49D94576'
p360
I47100
S'SE'
p361
tp362
a(S'6A914C2649EA67210319A3D9EF40BDBDC7A0CAF3'
p363
I4810
S'FR'
p364
tp365
a(S'749EF4A434DFD00DAB31E93DE86233FB916D31E3'
p366
I20000
S'LU'
p367
tp368
a(S'https://www.google.fr'
p369
F2.276578402519226
F16025.104391363713
tp370
aa(lp371
(S'CCF6D82B47DA428626DD68B01B3E5C510647A4C1'
p372
I46700
S'BE'
p373
tp374
a(S'54F8E06B82620803B87D158A252FE381D2DD578C'
p375
I4490
S'FR'
p376
tp377
a(S'377E5E817A84FAE0F4DC3427805DB2E8A6CBBFC0'
p378
I19500
S'CH'
p379
tp380
aa(lp381
(g150
I45400
S'FR'
p382
tp383
a(S'0B08D4F6C7BC43D9577D7F07764231D3D2949C45'
p384
I4360
S'NL'
p385
tp386
a(S'42B69143DAC4FBF94F0794193E271FC38B222FC4'
p387
I19000
S'NL'
p388
tp389
a(S'https://www.google.fr'
p390
F1.9730594873428344
F15781.665250180977
tp391
aa(lp392
(S'9EAB5E8034D687A58E439BE9C0FB0015F4F95FBA'
p393
I44900
S'SE'
p394
tp395
a(S'4981E8BF3F78232D3E14C9FD112851B3BC1F9FA4'
p396
I4290
S'NL'
p397
tp398
a(S'E3DB2E354B883B59E8DC56B3E7A353DDFD457812'
p399
I18700
S'US'
p400
tp401
a(S'https://www.google.fr'
p402
F3.3358455181121824
F40370.1217384803
tp403
aa(lp404
(S'1FC841137C1F4C525D869B908E007D1D35727EF2'
p405
I44100
S'GB'
p406
tp407
a(S'D313B081A3EFC5492BE95AFE39F715413DD35586'
p408
I4200
S'FR'
p409
tp410
a(S'8BF22BEA5F854F2BB2E09C71260ADF590D355E36'
p411
I18300
S'DE'
p412
tp413
a(S'https://www.google.fr'
p414
F1.50940043926239
F16148.213800291382
tp415
aa(lp416
(g162
I43900
S'LU'
p417
tp418
a(S'0CE3B73DDFF92FF6653A9C7F9003A32BB6C2364D'
p419
I4050
S'NO'
p420
tp421
a(S'7066C96CDC6E49352532F1400F556491CC3A1D2D'
p422
I18100
S'CZ'
p423
tp424
a(S'https://www.google.fr'
p425
F2.860797381401062
F16168.870843713014
tp426
aa(lp427
(S'5CF8AFA5E4B0BB88942A44A3F3AAE08C3BDFD60B'
p428
I43200
S'SE'
p429
tp430
a(S'09195B32B74E36151315B65E8D468F90A0840B14'
p431
I3950
S'CZ'
p432
tp433
a(S'C7E75D7D968C2355791EC29A420F69AF2737DA58'
p434
I17500
S'NL'
p435
tp436
a(S'https://www.google.fr'
p437
F1.7973145246505737
F15849.741819541323
tp438
aa(lp439
(S'23698ACD40ADFE9E1B6E372CF373E93F93C0193D'
p440
I42600
S'NL'
p441
tp442
a(S'ADC9038EA5888CA3A9F83DDD85B96FEBAC487B4D'
p443
I3890
S'FR'
p444
tp445
a(S'4F7CAE3C1DDB23A6BA01CF4F8EBB4257AD40875C'
p446
I17000
S'BG'
p447
tp448
a(S'https://www.google.fr'
p449
F2.0826255321502685
F15759.04548400463
tp450
aa(lp451
(S'5937800DEB5B3FDF68BD3392F2AE3A084254FE5F'
p452
I42000
S'DE'
p453
tp454
a(S'69D8E56CEDAAE7F776B32E15BB015E12DD020164'
p455
I3760
S'FR'
p456
tp457
a(S'0173A7A8BA9D32043641B69726D32A9ADFE26D16'
p458
I16500
S'NL'
p459
tp460
a(S'https://www.google.fr'
p461
F1.9185503482818604
F22589.2173198093
tp462
aa(lp463
(S'C4AFD509A86C53FFD0303BCF7A35A88843FA8FE7'
p464
I41100
S'GB'
p465
tp466
a(S'A0C8F9639F57C0275BACA118F1B31BCF243AE669'
p467
I3720
S'US'
p468
tp469
a(S'DF1EE95EB3F1A4017D41F9904CDC49B8348839F1'
p470
I16300
S'RO'
p471
tp472
a(S'https://www.google.fr'
p473
F3.935354542732239
F44306.730687280375
tp474
aa(lp475
(S'4DE7D511DADF9A9E4D35439BDF8915F89456F928'
p476
I39600
S'DE'
p477
tp478
a(S'8C00FA7369A7A308F6A137600F0FA07990D9D451'
p479
I3650
S'GB'
p480
tp481
a(S'1DA33B9823B9E169138D2F7B6A9D0626244F0A4E'
p482
I15800
S'US'
p483
tp484
a(S'https://www.google.fr'
p485
F2.2404852628707888
F21813.91255254778
tp486
aa(lp487
(S'D64366987CB39F61AD21DBCF8142FA0577B92811'
p488
I38600
S'RO'
p489
tp490
a(S'63DB32FBD37D7CBCC6C80E35D6D0423D2B7D3EDE'
p491
I3530
S'US'
p492
tp493
a(S'7D5CCD1D8D798779979DF7E0A3A2BFA55D2C24B3'
p494
I15600
S'CA'
p495
tp496
a(S'https://www.google.fr'
p497
F2.5604641914367674
F22048.546167932174
tp498
aa(lp499
(S'6235ED62BF3E8708F2DC776A1BCC02F1EE923F55'
p500
I37900
S'GB'
p501
tp502
a(S'D3ED911183DF31FDB744A22F94BE6A856AC77D12'
p503
I3460
S'CA'
p504
tp505
a(S'8CCE3E38C6325E53F9378C1CA7F50366ED2A9BD7'
p506
I15000
S'UA'
p507
tp508
a(S'https://www.google.fr'
p509
F2.6086687088012694
F44292.823241130805
tp510
aa(lp511
(S'B0964415A5380080570845E7CBFCADF87FDCCE5A'
p512
I37300
Ntp513
a(S'F0841A16A8DDC871735AD8CC48C7339115DF516B'
p514
I3390
S'ES'
p515
tp516
a(S'3EAAAB35932610411E24FA4317603CB5780B80BC'
p517
I14600
S'CH'
p518
tp519
aa(lp520
(S'90C647CEB6743456C642C945C1E821D0C61DA8F8'
p521
I36700
S'GB'
p522
tp523
a(S'4335AEA68EAA380812D2EE8E58FB8E704BB8A6A2'
p524
I3260
S'US'
p525
tp526
a(S'69CBD4C5A2AA490E2AA01986DA551B51E5336437'
p527
I14100
S'LV'
p528
tp529
a(S'https://www.google.fr'
p530
F3.1387144327163696
F42969.46543717458
tp531
aa(lp532
(S'01CD89CDAC9FF3266D5CB4A5EF1999641FEE9BBE'
p533
I36300
S'AT'
p534
tp535
a(S'F6D85C2901D47F66EA7147BD0ED1AEA9F9E2A9FB'
p536
I3210
S'US'
p537
tp538
a(S'615EBC4B48F03858FA50A3E23E5AF569D0D2308A'
p539
I13600
S'CH'
p540
tp541
a(S'https://www.google.fr'
p542
F5.213577508926392
F32620.95631920651
tp543
aa(lp544
(S'3A6A156A01891A13DFAB19A16D2DBABB84F1869B'
p545
I35800
S'GB'
p546
tp547
a(S'93EB375B0B3E8090FE9DBBB02C3F543F3423FA28'
p548
I3190
S'RO'
p549
tp550
a(S'81BC28735C58098591052099D5D068F0535AAE14'
p551
I13300
S'UA'
p552
tp553
a(S'https://www.google.fr'
p554
F2.1177021503448485
F16816.114534428358
tp555
aa(lp556
(S'E3CA236C613FC5A569B3112505E9E8672B35D783'
p557
I35600
S'TR'
p558
tp559
a(S'49C9773192BE9884277914F56D68B354E5B78A57'
p560
I3170
S'PL'
p561
tp562
a(S'2B44FD1742D26E4F28D4CACF1F0CF8A686270E45'
p563
I12900
S'CH'
p564
tp565
aa(lp566
(g195
I35200
S'NL'
p567
tp568
a(S'79390A5032B37640F4285E7990471A8BBBF8F790'
p569
I3100
S'GB'
p570
tp571
a(S'09619F41C3799128CAA9A1F7DFDBA7686DCD4B80'
p572
I12400
S'LV'
p573
tp574
a(S'https://www.google.fr'
p575
F1.8159894466400146
F16423.769721194643
tp576
aa(lp577
(S'8838645455FE1E03A4201322A1129D54A66E834D'
p578
I34500
S'FR'
p579
tp580
a(S'DE732BF6F57B05E0568237F36B75C584DB70E8DE'
p581
I3050
S'SE'
p582
tp583
a(S'AD368442E9FF33C08C7407DF2DA7DB958F406CE2'
p584
I12200
S'CH'
p585
tp586
aa(lp587
(S'BCF8F1F3CE6EC642A161562B1A921FBD912422FF'
p588
I33900
S'GB'
p589
tp590
a(S'5DCBD80D00E2720AA32E40317F51681BF52B5A63'
p591
I3020
S'US'
p592
tp593
a(S'2F57987F3942BA0BBD706D623F1FF86A896842C2'
p594
I11600
S'NL'
p595
tp596
a(S'https://www.google.fr'
p597
F2.5166613101959228
F37644.0873972919
tp598
aa(lp599
(S'136F9299A5009A4E0E96494E723BDB556FB0A26B'
p600
I33400
S'SE'
p601
tp602
a(S'9352B29095DAEEA31779DEF58380EA54CC135FE0'
p603
I2980
S'DE'
p604
tp605
a(S'231C00CD373C5DA8E5BA89883300506BC95881D9'
p606
I11100
S'MD'
p607
tp608
aa(lp609
(g205
I33200
S'US'
p610
tp611
a(S'236CF4D808756B7EE55FD3B96DCED80D2AB6901F'
p612
I2870
S'DE'
p613
tp614
a(S'ABD7842381D49C02BFE7A44F326ADAC6B3BD08F5'
p615
I10800
S'DE'
p616
tp617
a(S'https://www.google.fr'
p618
F2.9436998844146727
F32700.704510703243
tp619
aa(lp620
(S'4FF4BA8E10957BA6F47A2CA132155801701C0520'
p621
I33000
S'NL'
p622
tp623
a(S'A56EA79BAD76C916F010870C7EE002510546BAC0'
p624
I2840
S'DE'
p625
tp626
a(S'3D28E5FBD0C670C004E59D6CFDE7305BC8948FA8'
p627
I10500
S'BG'
p628
tp629
aa(lp630
(S'75F1992FD3F403E9C082A5815EB5D12934CDF46C'
p631
I32800
S'DE'
p632
tp633
a(S'10F7F8FE7871E00ED68B727C8CCAC45E2C8E4973'
p634
I2760
S'DE'
p635
tp636
a(S'C974508A98446F36169FB248655BCD50DF17F14C'
p637
I10200
S'GB'
p638
tp639
a(S'https://www.google.fr'
p640
F1.6852576017379761
F22361.169435777592
tp641
aa(lp642
(S'F8D27B163B9247B232A2EEE68DD8B698695C28DE'
p643
I32400
S'DE'
p644
tp645
a(S'5AA81AE1F2584F1740D813F407FF08028783C5DF'
p646
I2720
S'NL'
p647
tp648
a(S'FE67A1BA4EF1D13A617AEFB416CB9E44331B223A'
p649
I9890
S'GB'
p650
tp651
a(S'https://www.google.fr'
p652
F1.6889194965362548
F21842.720449279877
tp653
aa(lp654
(S'78EBA3F8933A0F596B43A7DBD794C5630F5B587D'
p655
I31900
S'IT'
p656
tp657
a(S'B292E2AF225887F6CA5D45860C4C38CEEE2390E4'
p658
I2710
S'FR'
p659
tp660
a(S'21627BF34FEB5128B3A671AFC81B9A4CEC7E580C'
p661
I9760
S'MD'
p662
tp663
a(S'https://www.google.fr'
p664
F2.1476317405700684
F27182.33456796722
tp665
aa(lp666
(S'C2C2B839F4CFFA5F7B7A40CB0BE84F7D948CB510'
p667
I31500
S'CH'
p668
tp669
a(S'20386D9A32BECBE602375E015FC70117955653F1'
p670
I2680
S'DE'
p671
tp672
a(S'A7C7EB2A0DFB2E3FFFC12B7756707433DD550F9E'
p673
I9350
S'US'
p674
tp675
a(S'https://www.google.fr'
p676
F2.2493010759353638
F22480.25157669458
tp677
aa(lp678
(S'C49A177510CAA653DA6727BF0E07FB7F56A0F09D'
p679
I31000
S'DE'
p680
tp681
a(S'A575E86C33A307BE9BA2317FC8FBD1D7587EFD0D'
p682
I2660
S'CH'
p683
tp684
a(S'9BA84E8C90083676F86C7427C8D105925F13716C'
p685
I8750
S'FR'
p686
tp687
a(S'https://www.google.fr'
p688
F2.1088253021240235
F15730.60948772783
tp689
aa(lp690
(S'A1B7C1F83E5DA4376FD2E1DBA7AC28A71AB332AD'
p691
I30800
S'DK'
p692
tp693
a(S'64748FC864B2D2C13F7E81E9B557AFD90850CA52'
p694
I2570
S'US'
p695
tp696
a(S'B5C6F712D656C9390056AA9BA7020C87EEE9FA30'
p697
I8380
S'MD'
p698
tp699
a(S'https://www.google.fr'
p700
F2.1436754941940306
F37484.77959837919
tp701
aa(lp702
(S'BD6A8E0EF1B8E021A41CB1C8463CF3F673BF1AC2'
p703
I30700
S'DE'
p704
tp705
a(S'D3AF4FB7ADDF5DBF63BDC954139074566F71B682'
p706
I2550
S'US'
p707
tp708
a(S'308D5B726051761D40DB31C7E89254A3CD3F27E0'
p709
I7830
S'BG'
p710
tp711
aa(lp712
(S'231C2B9C8C31C295C472D031E06964834B745996'
p713
I30300
S'DE'
p714
tp715
a(S'51DB300CB6B8E1EC5299C358D22DCE38B76C670D'
p716
I2520
S'US'
p717
tp718
a(S'D52CD431CEF28E01B11F545A84347EE45524BCA7'
p719
I7290
S'US'
p720
tp721
a(S'https://www.google.fr'
p722
F2.6278634071350098
F22011.32693282291
tp723
aa(lp724
(S'601C92108A568742A7A6D9473FE3A414F7149070'
p725
I30100
S'IT'
p726
tp727
a(S'B5A7EF4AC2BDD4CE151EFF607C07A91B7CC576F6'
p728
I2470
S'CA'
p729
tp730
a(S'C220BDAB86D623511BA71DA7C47AA5D6388597EA'
p731
I6900
S'FR'
p732
tp733
a(S'https://www.google.fr'
p734
F3.047291326522827
F38675.22075022115
tp735
aa(lp736
(S'54DE63F4587058B79152A75A0238D7F7A0279215'
p737
I29900
S'AT'
p738
tp739
a(S'783C36CF2F61A1B3C4238499D92C619A9CDDEA3B'
p740
I2440
S'DE'
p741
tp742
a(S'31D01A8CD3799E0CB6A56D8F149846A1B0D90283'
p743
I6700
S'UA'
p744
tp745
a(S'https://www.google.fr'
p746
F1.9499021768569946
F26429.26407683296
tp747
aa(lp748
(S'8B75B072BAFD2871DF2B0A6A90057F2D7442EE54'
p749
I29700
S'DE'
p750
tp751
a(S'7CF8EFC6406668FCFEDFBFC33D77A3EE1CA6DAA6'
p752
I2400
S'GB'
p753
tp754
a(S'E94E2C5B7EF8BAB02A24305B397B8D962156AB55'
p755
I6430
S'US'
p756
tp757
a(S'https://www.google.fr'
p758
F2.084673023223877
F22378.479223148704
tp759
aa(lp760
(g236
I29500
S'GB'
p761
tp762
a(S'6B66274DF73C29ACB1C1D0791C7DE2E5C554F9EC'
p763
I2370
S'US'
p764
tp765
a(S'D46175487C332CC602F7D1A44D7BA73348C6C49E'
p766
I6100
S'US'
p767
tp768
a(S'https://www.google.fr'
p769
F2.2102094173431395
F21968.627036494392
tp770
aa(lp771
(S'4C9BCE585C8BE13D13DBCAB208307C34FD7D6C67'
p772
I29100
S'FR'
p773
tp774
a(S'3CEE0B4716ECD6A33636E82224EEDDF4AD4B2A87'
p775
I2340
S'US'
p776
tp777
a(S'91824956DFA430C071BF6B94B623DF10931D1D40'
p778
I5830
S'FR'
p779
tp780
a(S'https://www.google.fr'
p781
F2.1692831039428713
F38712.17956748435
tp782
aa(lp783
(S'DC8EC8C0A6A36E6B3CF503360911F62A80CA9135'
p784
I28800
S'FR'
p785
tp786
a(S'5E99CA5F45A8757FACA7628278A08F8D6C1891E2'
p787
I2300
S'RU'
p788
tp789
a(S'45246164261A91103C2EBAAB9E08E0627F49A733'
p790
I5620
S'US'
p791
tp792
aa(lp793
(S'1F52D692FA2C21B23FAD4D711A7BF17BAE2673DF'
p794
I27900
S'DE'
p795
tp796
a(S'44FC675C2B4626F5886AFA5CCC5E7554821711C6'
p797
I2230
S'FI'
p798
tp799
a(S'6C931853DBA70F232F53BEA81E0B12C155649749'
p800
I5300
S'IS'
p801
tp802
a(S'https://www.google.fr'
p803
F2.320433807373047
F25243.521746916387
tp804
aa(lp805
(S'F693ED46000B9D47E79BB8443D4F231A89E37570'
p806
I27600
S'DE'
p807
tp808
a(S'E2BACB5A8230FAE64DBA7526C88325A7AF3C64E0'
p809
I2210
S'US'
p810
tp811
a(S'84C158F72C49DEDE8DD8B4102D002DE82C4F484E'
p812
I5010
S'US'
p813
tp814
a(S'https://www.google.fr'
p815
F2.4581613779067992
F21957.002955788863
tp816
aa(lp817
(S'DD45695242C1C5E36DC5BE71EC1AE71A5D823B96'
p818
I27300
S'DE'
p819
tp820
a(S'E8057DEC7C3135E734776A399F39FB3CAC524EDF'
p821
I2180
S'NL'
p822
tp823
a(S'1220F0F20E80D348244C5F3B6D126DAA0A446DFD'
p824
I4750
S'US'
p825
tp826
a(S'https://www.google.fr'
p827
F2.5200268983840943
F40460.927045290926
tp828
aa(lp829
(S'A80FD02D956F0D0D1BF2BFD86ADAAF8C034D1FD6'
p830
I27100
S'SE'
p831
tp832
a(S'871F98A6C74857DAC08C4227D7564EE038E2AF03'
p833
I2160
S'SE'
p834
tp835
a(S'6A84FCCB65ABEF5C3C64F5B8219895DE4E9FD709'
p836
I4510
S'US'
p837
tp838
aa(lp839
(S'2A20A2E03AAD72EB3F7E259D960AAFF1F31E85B0'
p840
I26800
S'FR'
p841
tp842
a(S'476E545A4B9C9756C6695410F83A0C5E739A7BA2'
p843
I2140
S'DE'
p844
tp845
a(S'F310FDB5F912F9D1CEA4905A8565579DBE26576E'
p846
I4330
S'US'
p847
tp848
a(S'https://www.google.fr'
p849
F2.068087029457092
F42915.99556327425
tp850
aa(lp851
(S'0AD3B16ADF3EED3E5962FA944CD501352E790814'
p852
I26500
S'DE'
p853
tp854
a(S'D964815C090A1F45FF025298C4E42565B40671E9'
p855
I2130
S'GB'
p856
tp857
a(S'B7828C22ECC3DA13480DAC1ECD4194F89F742EF6'
p858
I4130
S'NL'
p859
tp860
a(S'https://www.google.fr'
p861
F1.5680581092834474
F15837.973479734186
tp862
aa(lp863
(S'DAB96CEA61CC039A803217035293FAB32645FDDA'
p864
I26400
S'SK'
p865
tp866
a(S'16CB0D8A4525B4560F01D8689D7FB08E82DDCE06'
p867
I2110
S'US'
p868
tp869
a(S'8E7093C928C5FF8D8E854A312002A582F131728F'
p870
I3940
S'HU'
p871
tp872
a(S'https://www.google.fr'
p873
F2.8460669994354246
F32354.989723823506
tp874
aa(lp875
(S'22BCD0DFD148209C9860C7F89907AB4DEE974A08'
p876
I26200
S'DE'
p877
tp878
a(S'0ED98C2E8191D27754B8492EFB82E11C8025142D'
p879
I2090
S'US'
p880
tp881
a(S'6BF187E89311225880CEDF3F2956BD4E4009F68B'
p882
I3820
S'DE'
p883
tp884
a(S'https://www.google.fr'
p885
F2.579157257080078
F35591.41575995874
tp886
aa(lp887
(S'6C87F089725DDE249D58732075B102405923A3B5'
p888
I25900
S'FR'
p889
tp890
a(S'8DCA8AA811A5DA0A758292E5A6DC3486DB1D948D'
p891
I2080
S'US'
p892
tp893
a(S'BF78125478F797DADC44D4EE57AAE4619D761F74'
p894
I3770
S'CA'
p895
tp896
a(S'https://www.google.fr'
p897
F2.2269628286361693
F27315.77419982895
tp898
aa(lp899
(g284
I25700
S'NO'
p900
tp901
a(S'F2A6F1BB8ADD47CC9CC67928EA8EA7FDB3F92533'
p902
I2060
S'US'
p903
tp904
a(S'7D182B903D51688C647E369DFA8DB466971C7D13'
p905
I3640
S'GB'
p906
tp907
a(S'https://www.google.fr'
p908
F2.759778618812561
F38458.90501205235
tp909
aa(lp910
(S'7E970872909A9A10C32AEFE3CA693FFBD88EDDCF'
p911
I25600
S'DE'
p912
tp913
a(S'6B09B75E7C0219DFEACD957EA2E735F5C4C7209B'
p914
I2030
S'RU'
p915
tp916
a(S'B3233E96418C4E89AF22FC9A1F2392C0D194117B'
p917
I3500
S'NL'
p918
tp919
a(S'https://www.google.fr'
p920
F3.542121148109436
F28629.402891458292
tp921
aa(lp922
(S'20198F4E1A0E23F32C6265DF749BA003DDAF79B1'
p923
I25300
S'SG'
p924
tp925
a(S'540A7B0A2A6E2E58863D67D58F971823C1D2469B'
p926
I2020
S'NL'
p927
tp928
a(S'F220B27ECA5EE1C9A3C65BBC700B1471488F86E8'
p929
I3410
S'CA'
p930
tp931
aa(lp932
(S'A3EC639C6574B2FBC31B468CF37DF390A553A2D2'
p933
I24800
S'IT'
p934
tp935
a(S'2912E8526BE85CA05B0B74C455E887756B0E9AFC'
p936
I1980
S'DE'
p937
tp938
a(S'382248E9E99857109B14344CF2B88166B41297A3'
p939
I3220
S'NL'
p940
tp941
aa(lp942
(S'20F20581F3875057CB7AF7B61F7FDA6FA086AC71'
p943
I24500
S'DE'
p944
tp945
a(S'ADC56E4918191466E11A34E6B226EBFE10A14A57'
p946
I1940
S'CZ'
p947
tp948
a(S'A7253314D23F9BA9FF9D697A736478B32147BADE'
p949
I3110
S'ZA'
p950
tp951
aa(lp952
(S'97861618A092552D270E24699164A9BDEA16A1BC'
p953
I24300
S'FR'
p954
tp955
a(S'E349FD6138FCA9B4ED81CA6CBDE85962DFE0B14F'
p956
I1920
S'RU'
p957
tp958
a(S'79C30358DA8969ED45EF97C528DB23DA823539C5'
p959
I2850
S'UA'
p960
tp961
aa(lp962
(S'5EF131C0C82270F40B756987FDB5D54D9C966238'
p963
I23600
S'US'
p964
tp965
a(S'B3D95D354A8EB80E73627059E307D122A2509BD7'
p966
I1900
S'NL'
p967
tp968
a(S'59C48559C9EB876053B80E69FBE036E658FDC4F4'
p969
I2540
S'NZ'
p970
tp971
a(S'https://www.google.fr'
p972
F4.894196629524231
F49420.37945506963
tp973
aa(lp974
(S'71AB4726D830FAE776D74AEF790CF04D8E0151B4'
p975
I23500
S'GB'
p976
tp977
a(S'B9CFA4D3E79F5D2CF219E0C98C5545522D9EC1BC'
p978
I1890
S'US'
p979
tp980
a(S'980A8D38EE4A0A9169C20FEC856F7362BC36A86F'
p981
I2470
S'CR'
p982
tp983
a(S'https://www.google.fr'
p984
F2.50827009677887
F22035.082598377103
tp985
aa(lp986
(S'4FEE77AFFD157BBCF2D896AE417FBF647860466C'
p987
I23300
S'FR'
p988
tp989
a(S'54ED9A99DC4F519028C5933A53A396AE9B17E3B0'
p990
I1870
S'DE'
p991
tp992
a(S'68EF2159F9EA1C76EF3EB06868E0E423800D9634'
p993
I2270
S'CH'
p994
tp995
a(S'https://www.google.fr'
p996
F1.5440016031265258
F15325.658987207207
tp997
aa(lp998
(S'14611F3463FE81203860B229088A7CC4B12F389F'
p999
I23100
S'FR'
p1000
tp1001
a(S'F53596D7FC41A639FE410C6A1F9B23A83F783C6A'
p1002
I1870
S'DE'
p1003
tp1004
a(S'C6E06C3EBD512526D1EAD695D168262933B6166B'
p1005
I2160
S'IS'
p1006
tp1007
a(S'https://www.google.fr'
p1008
F1.943911361694336
F22334.821953976716
tp1009
aa(lp1010
(S'29FA511E67A31A1A874AABFB2B624AD122AE4ED4'
p1011
I22900
S'DE'
p1012
tp1013
a(S'8842DEE21CC9A159D405828CBD374A6008EDF195'
p1014
I1860
S'GB'
p1015
tp1016
a(S'2A7F40E6F9C1E0E66F4BC0B65438BB18458B043B'
p1017
I2050
S'RU'
p1018
tp1019
a(S'https://www.google.fr'
p1020
F2.294718599319458
F15977.351781551919
tp1021
aa(lp1022
(S'1BAD20F78D7673CE97DB3EE210B43814D68384DE'
p1023
I22800
S'GB'
p1024
tp1025
a(S'21281A01279875A67C4FD2C6B125AC0587CBF9F9'
p1026
I1840
S'NL'
p1027
tp1028
a(S'E1B7E64D86906F33FEE68021F56FA27EFF6E36D0'
p1029
I1960
S'CA'
p1030
tp1031
aa(lp1032
(S'E9195229232EB52C306945BFBE1C7C80F2358E56'
p1033
I22800
S'FR'
p1034
tp1035
a(S'EC697C3D5819B16BB899D29A18B9E7B6095DFAEC'
p1036
I1840
S'IS'
p1037
tp1038
a(S'5C7B44436D92CBC75D644BA33BFCE32BEBBFED23'
p1039
I1860
S'IS'
p1040
tp1041
aa(lp1042
(S'869B065C469857A39A3E2ECEA38A15AF0B0B6247'
p1043
I22500
S'CH'
p1044
tp1045
a(S'D032D4D617140D6B828FC7C4334860E45E414FBE'
p1046
I1830
S'NL'
p1047
tp1048
a(S'8167DA17A24CCA1EDD4EE29A156BEFB751886C98'
p1049
I1780
S'RO'
p1050
tp1051
a(S'https://www.google.fr'
p1052
F2.391360116004944
F15328.948355899058
tp1053
aa(lp1054
(S'1ECD73B936CB6E6B3CD647CC204F108D9DF2C9F7'
p1055
I22300
S'HU'
p1056
tp1057
a(S'45AB1F524211EAC142AF3EE2F7D42DD1C37AEB3A'
p1058
I1820
S'SE'
p1059
tp1060
a(S'882520DC927DE7DA690957B79CF83234D99B8D63'
p1061
I1700
S'NL'
p1062
tp1063
a(S'https://www.google.fr'
p1064
F2.0808648347854612
F23082.708669010768
tp1065
aa(lp1066
(S'91041B34A0B91759475B2CEC0AB3063FF23C758D'
p1067
I22000
S'DK'
p1068
tp1069
a(S'8189513777BDA78C35B61F0EA20E7C4E8D76E40F'
p1070
I1810
S'RU'
p1071
tp1072
a(S'FDA8AAF605DD262AB5DB0DDDF138D852DDB99652'
p1073
I1630
S'US'
p1074
tp1075
aa(lp1076
(S'16FD6C156E06EA2D1EC91C9C08983F2F5983EE78'
p1077
I21700
S'LU'
p1078
tp1079
a(S'BDADB17E9A22F7D5B061F51FFE34849EEA7076FD'
p1080
I1800
S'US'
p1081
tp1082
a(S'5CB8DB02835EE3EB8ACCA8393C36CDAC06310CA3'
p1083
I1570
S'DE'
p1084
tp1085
a(S'https://www.google.fr'
p1086
F2.9600688457489013
F40370.65801224596
tp1087
aa(lp1088
(S'1322829FCAE54B4D4681337F0866CACD951C1E2E'
p1089
I21000
S'DE'
p1090
tp1091
a(S'089260D1E6B94EEB3EBB49F25CC64B72C18AA9EE'
p1092
I1760
S'NL'
p1093
tp1094
a(S'460F2EB956C09933A7E495C800786F11FD6D6336'
p1095
I1490
S'NL'
p1096
tp1097
a(S'https://www.google.fr'
p1098
F1.6184977054595948
F15523.596950987001
tp1099
aa(lp1100
(S'BEAC7B6AC3C9F14BD087CB3D833D50647A281416'
p1101
I20900
S'FR'
p1102
tp1103
a(S'C55D143A6F043C190CA8F659A2B75F617471C5C6'
p1104
I1750
S'GR'
p1105
tp1106
a(S'8C34E2E1A7C00C809C58EB10D83677EE6DAC37BD'
p1107
I1440
S'GB'
p1108
tp1109
aa(lp1110
(S'5E184FEA02B7C54172BBC757636F501047CF9691'
p1111
I20800
S'FR'
p1112
tp1113
a(S'A225E6485D182E3BFD73C22276EC656D5230CFAB'
p1114
I1730
S'GB'
p1115
tp1116
a(S'696ABFA60C2FEA676FAF2DC2DA58A6D09FDBF78C'
p1117
I1380
S'DE'
p1118
tp1119
a(S'https://www.google.fr'
p1120
F2.8275049924850464
F16554.099902531907
tp1121
aa(lp1122
(S'B771AA877687F88E6F1CA5354756DF6C8A7B6B24'
p1123
I20700
S'GB'
p1124
tp1125
a(S'018034682850345984781E353B7A463443EC3F06'
p1126
I1710
S'US'
p1127
tp1128
a(S'4E6B5198763C26EEB5B3566077C4B2322DFB70DF'
p1129
I1320
S'SG'
p1130
tp1131
a(S'https://www.google.fr'
p1132
F3.4748899936676025
F38652.327160060995
tp1133
aa(lp1134
(S'7CBF05179104C6B4957C766D2B9AABD83C0DFB7D'
p1135
I20600
S'GB'
p1136
tp1137
a(S'F20A0B5DCCF55383B55159DCA759C158D5E827E2'
p1138
I1700
S'US'
p1139
tp1140
a(S'BA88B78928C663F0678A91273445127599FCCB0A'
p1141
I1270
S'ES'
p1142
tp1143
aa(lp1144
(S'C33F9CCEE10A1A525A8EA13AA6C4CFA7D088960F'
p1145
I20500
S'FR'
p1146
tp1147
a(S'9E433453D33F85B726AABAD043DDD00E171329C1'
p1148
I1660
S'GB'
p1149
tp1150
a(S'2542A81017B18EF778BD7024C6D9C4B8B8125646'
p1151
I1170
S'LT'
p1152
tp1153
a(S'https://www.google.fr'
p1154
F1.834968900680542
F16453.77104607573
tp1155
aa(lp1156
(S'439D0447772CB107B886F7782DBC201FA26B92D1'
p1157
I20300
S'GB'
p1158
tp1159
a(S'5711D15C9B2736A8677273E0F1B6B0370777CFFA'
p1160
I1650
S'CA'
p1161
tp1162
a(S'BD3C1917D335A4D09F34B1F29F11FB9B10E11C08'
p1163
I1130
S'CZ'
p1164
tp1165
a(S'https://www.google.fr'
p1166
F2.653633952140808
F33852.12660573625
tp1167
aa(lp1168
(S'0FBE018DADAB416DE17A10C5D4AD3EBF0E243561'
p1169
I20000
S'LT'
p1170
tp1171
a(S'A7B6970237878E3550AE32BC574672CAF1E95FDC'
p1172
I1650
S'DE'
p1173
tp1174
a(S'EE0C0F23686AAD253646D6C0F4073FBC20F5C408'
p1175
I1080
S'SI'
p1176
tp1177
a(S'https://www.google.fr'
p1178
F2.281475806236267
F14371.513444540644
tp1179
aa(lp1180
(S'1A4102AF716CC6FFDD5B8ED19197A1A39580FD44'
p1181
I19800
S'HU'
p1182
tp1183
a(S'5D3DF925DE269F469ED0C762B0F4E6C51307A1A9'
p1184
I1640
S'GB'
p1185
tp1186
a(S'8A4EC09D94024363AFD402542A46A4239CCC0673'
p1187
I1060
S'DE'
p1188
tp1189
a(S'https://www.google.fr'
p1190
F2.0474340677261353
F15972.602281032403
tp1191
aa(lp1192
(S'BCE02E4A73B6CF72F3855470E353060D85F6BD45'
p1193
I19800
S'RU'
p1194
tp1195
a(S'CB557D9D7FAAEAD0D74383B82DB3FB9D4C7CD33A'
p1196
I1640
S'DE'
p1197
tp1198
a(S'3DE567C1350C0E858C6147AECB06EA9B3EAF3261'
p1199
I1050
S'US'
p1200
tp1201
a(S'https://www.google.fr'
p1202
F2.2047853231430055
F32173.96212421181
tp1203
aa(lp1204
(S'6D920BA3EE395E63FD3FDB8FA379993C6EA7897A'
p1205
I19700
S'NL'
p1206
tp1207
a(S'CFEC81B97F6C15689ED8451C3DB0F8C399C01724'
p1208
I1630
S'CH'
p1209
tp1210
a(S'683A668EBD5E275889B510CAEA45752016E3DE30'
p1211
I957
S'RU'
p1212
tp1213
a(S'https://www.google.fr'
p1214
F2.7974150657653807
F16051.160540387255
tp1215
aa(lp1216
(S'56944008F97831B482014F8E8D267CB65E5B50DB'
p1217
I19500
S'GB'
p1218
tp1219
a(S'AAF805F258129F7216B342BD2A6E6EDBC0F6138B'
p1220
I1620
S'FR'
p1221
tp1222
a(S'32596E73F4190A553849B7F88461C18E89BA436C'
p1223
I880
S'NL'
p1224
tp1225
a(S'https://www.google.fr'
p1226
F1.7746049404144286
F16186.185147544042
tp1227
aa(lp1228
(S'D1AF0CB135825996AE37764164CA78853FB38A1E'
p1229
I19400
S'FR'
p1230
tp1231
a(S'C5A2588FCC41388CB1D45640607A591B0AEE8371'
p1232
I1620
S'DE'
p1233
tp1234
a(S'011E47E55BE7FDE2DE91A907D99A5C0528703ECA'
p1235
I776
S'RU'
p1236
tp1237
a(S'https://www.google.fr'
p1238
F2.1601397037506103
F15718.122827977648
tp1239
aa(lp1240
(S'BF7BFCB3096FC81FBD0B7ADA66164431EC7FD117'
p1241
I19300
S'SE'
p1242
tp1243
a(S'5216834D6B641C58347C7E353E88C6959F97DBE9'
p1244
I1610
S'DE'
p1245
tp1246
a(S'EE45B6FE4E20AA7EF979F0D1878E86AB5FE7F7A7'
p1247
I727
S'RU'
p1248
tp1249
a(S'https://www.google.fr'
p1250
F2.3985774517059326
F14842.82890175978
tp1251
aa(lp1252
(S'8F02FE5E233730A6AB4C982E18A2136E662A0B59'
p1253
I19100
S'SE'
p1254
tp1255
a(S'42E906A6EAC13CE68DC631E25B6EE19A6DB7CB92'
p1256
I1600
S'RU'
p1257
tp1258
a(S'303DB7197E436AF5133DC33DDC8D054DE0D19B77'
p1259
I696
S'SE'
p1260
tp1261
aa(lp1262
(S'DFB2EB472643FAFCD5E73D2E37D51DB67203A695'
p1263
I19000
S'FR'
p1264
tp1265
a(S'3AE5D04CE71E4434710EACC4CD379E94D149445D'
p1266
I1590
S'HU'
p1267
tp1268
a(S'13188CEF8ABA3AC97304930CD1EE94D57F67A7C3'
p1269
I629
S'SE'
p1270
tp1271
a(S'https://www.google.fr'
p1272
F2.8241191148757934
F16518.644066527886
tp1273
aa(lp1274
(S'CE1FD7659F2DFE92B883083C0C6C974616D17F3D'
p1275
I18900
S'DK'
p1276
tp1277
a(S'EA1C6C5490CE496BECDADB93FBA9B81A3D0C9772'
p1278
I1580
S'GB'
p1279
tp1280
a(S'616EA51FD87EB862CF19A63315A61AF91CA603D7'
p1281
I566
S'US'
p1282
tp1283
a(S'https://www.google.fr'
p1284
F1.8995723247528076
F37445.11146942847
tp1285
aa(lp1286
(S'81A59766272894D27FE8375C4F83A6BA453671EF'
p1287
I18800
S'AT'
p1288
tp1289
a(S'2377D343C95BB9A660A5699ECAB3C050FDBAC730'
p1290
I1560
S'US'
p1291
tp1292
a(S'00510D40618AE2E788B0C5866A5FCFB637A68808'
p1293
I523
S'KR'
p1294
tp1295
aa(lp1296
(S'4A0C3E177AF684581EF780981AEAF51A98A6B5CF'
p1297
I18700
S'SE'
p1298
tp1299
a(S'396E999FDAE88B292C40404E9706B31CB757598F'
p1300
I1550
S'GB'
p1301
tp1302
a(S'FE636E04E0BCDACCBFEDD26E7F9BD8800FD72630'
p1303
I492
S'CZ'
p1304
tp1305
a(S'https://www.google.fr'
p1306
F2.671821880340576
F16430.751028369523
tp1307
aa(lp1308
(S'4F6C767297BD0F7073B0EF73D76565A62A6873D4'
p1309
I18600
S'FR'
p1310
tp1311
a(S'D38429A2CDA44DBCF646F43A9718DD36A28CB17F'
p1312
I1550
S'DE'
p1313
tp1314
a(S'2AF2C46E92572C3876B236D59229E6617752A3FC'
p1315
I469
S'SE'
p1316
tp1317
a(S'https://www.google.fr'
p1318
F1.6135873079299927
F16558.311629135114
tp1319
aa(lp1320
(S'B3DE2FFA60BABF6D40FA74B11BB762765D2AD700'
p1321
I18500
S'CZ'
p1322
tp1323
a(S'79595E376F655335DFAC20F825A75FA0D55C710D'
p1324
I1540
S'RU'
p1325
tp1326
a(S'1C84A23261FC9249C5C7E3D18ADC4E281D7B339E'
p1327
I436
S'DE'
p1328
tp1329
a(S'https://www.google.fr'
p1330
F2.0320484161376955
F19820.285452939752
tp1331
aa(lp1332
(S'D429A1889125A69E4286ED8F5A7C342AB46AF993'
p1333
I18400
S'FR'
p1334
tp1335
a(S'BB811306F95C9582E79C5EE0D4E9E0B8B07046DF'
p1336
I1540
S'FR'
p1337
tp1338
a(S'5D263037FC175596B3A344132B0B755EB8FB1D1C'
p1339
I416
S'NO'
p1340
tp1341
a(S'https://www.google.fr'
p1342
F1.7479831218719482
F16100.368577735067
tp1343
aa(lp1344
(S'1322D90EA6EDA85B3A8566F2C04F2D8C5C7C1EF1'
p1345
I18200
S'GB'
p1346
tp1347
a(S'8465BD0CA2C2A01B87179FD24B9AB7757D35D97F'
p1348
I1530
S'US'
p1349
tp1350
a(S'741FC99005EA893BBB24A608E1FE454D9664A380'
p1351
I390
S'TW'
p1352
tp1353
a(S'https://www.google.fr'
p1354
F3.449996519088745
F40029.03796267119
tp1355
aa(lp1356
(S'FDA37FDA63912E149B35C63CE047EE3DDF75C0EB'
p1357
I18200
S'NL'
p1358
tp1359
a(S'83DFEC1DDE89CA19282B6845A7F977512BB03D85'
p1360
I1520
S'US'
p1361
tp1362
a(S'A2E331C0DF80A0B8F1A4D850252CDCDB3C4A105A'
p1363
I378
S'US'
p1364
tp1365
a(S'https://www.google.fr'
p1366
F2.4404281854629515
F24420.792012569036
tp1367
aa(lp1368
(S'EA08B410DAB2D04007AC75DE73AEE51AF176E5F3'
p1369
I18100
S'DE'
p1370
tp1371
a(S'A7F80AB7E04C0004E8DE0A0037F8ED54292458BF'
p1372
I1510
S'IT'
p1373
tp1374
a(S'22F74E176F803499D4F80D9CE7D325883A8C0E45'
p1375
I350
S'NL'
p1376
tp1377
aa(lp1378
(S'D37B8FC3A90FA615119A3DD6EDFF7544F632B800'
p1379
I17900
S'DE'
p1380
tp1381
a(S'7DE0747506EF366AADB5CAB8832F9C501E6462F4'
p1382
I1490
S'IS'
p1383
tp1384
a(S'6BFF17C0739A7C1C8D537026045A88642A2273EE'
p1385
I284
S'CH'
p1386
tp1387
a(S'https://www.google.fr'
p1388
F2.5174777030944826
F20819.48837100501
tp1389
aa(lp1390
(S'1E7D96BA2422323616C12B705D8E142AE0BA0D14'
p1391
I17700
S'FR'
p1392
tp1393
a(S'9180456AC844117F2B6DA421713953F1C32862B9'
p1394
I1480
S'SE'
p1395
tp1396
a(S'79D3145F3E501CC3B28219375FBAEE291D7DD337'
p1397
I268
S'ZA'
p1398
tp1399
aa(lp1400
(S'99AC77667D8D606251B749DFDA473B2C781F78D0'
p1401
I17700
S'CH'
p1402
tp1403
a(S'F7750E2F5C7D9FED0EA3AADD1E0E2CB123BA393D'
p1404
I1480
S'CZ'
p1405
tp1406
a(S'1532A36172C70012B1057FBBFAFE2734EDBF4A3B'
p1407
I241
S'NL'
p1408
tp1409
a(S'https://www.google.fr'
p1410
F1.6255217790603638
F16381.872580797535
tp1411
aa(lp1412
(S'6B8FC389CD2DFEB23AD721175E810040DE9D324E'
p1413
I17500
S'DE'
p1414
tp1415
a(S'9FAAC5A940E1D6D210749F37CC285A362954C763'
p1416
I1470
S'DE'
p1417
tp1418
a(S'6F6586F1631CAC1115B9561656E7664D386B7F4B'
p1419
I203
S'DE'
p1420
tp1421
aa(lp1422
(S'F155D885CC758F13F38E805E9D53F0EF0139A275'
p1423
I17500
S'NL'
p1424
tp1425
a(S'0041E0150B0A307506C2863EFC9F2B7E3A523B36'
p1426
I1460
S'DE'
p1427
tp1428
a(S'C514A3E6D98385E47BA6D67C632383A549C1C115'
p1429
I197
S'HK'
p1430
tp1431
aa(lp1432
(S'8BB8854BAF5568F3A74750E860923B6898882F14'
p1433
I17300
S'FR'
p1434
tp1435
a(S'88235E2877B61BF2AEE5D43D727DED66DDF685F5'
p1436
I1460
S'CA'
p1437
tp1438
a(S'B3648D05D26F9564FA9CD6185CC06DC59383EB63'
p1439
I189
S'CZ'
p1440
tp1441
a(S'https://www.google.fr'
p1442
F2.886155867576599
F32285.34335081918
tp1443
aa(lp1444
(S'30973217E70AF00EBE51797FF6D9AA720A902EAA'
p1445
I17200
S'US'
p1446
tp1447
a(S'9561D6B3D8A66A96657A5ABBC8C7FBA565A6CA39'
p1448
I1450
S'DE'
p1449
tp1450
a(S'9FB2DCBE32859CD510EA325FA64237F5AAE78E17'
p1451
I169
S'RO'
p1452
tp1453
a(S'https://www.google.fr'
p1454
F2.906643009185791
F32430.028827920007
tp1455
aa(lp1456
(S'E36536404200A74930DB165858BD5BB554D2BEA2'
p1457
I17200
S'CH'
p1458
tp1459
a(S'95C4EF3787069A3A1A3B5FD4057A34CA97C171C3'
p1460
I1440
S'US'
p1461
tp1462
a(S'F94BCE1B6E3899FA4E4CBCC3B19C4FD8CC2B33BB'
p1463
I159
S'RO'
p1464
tp1465
a(S'https://www.google.fr'
p1466
F3.0039617300033568
F31854.190827004157
tp1467
aa(lp1468
(S'F625C116BFBB8F7FC4E76D6C268995B39C7455B2'
p1469
I17100
S'FR'
p1470
tp1471
a(S'9444B5C3AAFB43076445A0C054FBB2439326A504'
p1472
I1430
S'US'
p1473
tp1474
a(S'01E1DF33A8D47D0D33F89FC69F009E59C618FD04'
p1475
I130
S'NL'
p1476
tp1477
aa(lp1478
(S'42021D947F3DF56A9C0F86C0213E9B3BC4666B82'
p1479
I16900
S'SE'
p1480
tp1481
a(S'C89C1776516FAB106B60A003F73E009D974F9D25'
p1482
I1420
S'PL'
p1483
tp1484
a(S'BA3C74A60F75F55DAFA2230CFE7B3723CF9136B8'
p1485
I118
S'IN'
p1486
tp1487
a(S'https://www.google.fr'
p1488
F4.513235473632813
F15212.120103597726
tp1489
aa(lp1490
(S'265E5ABBF2E5846443901E878146060148EFEA44'
p1491
I16800
S'US'
p1492
tp1493
a(S'87C501AEBD9E37EC98877648CA045DCCF5B1F896'
p1494
I1410
S'NL'
p1495
tp1496
a(S'C92C5913D70F7ADF473165020A690F4A68156887'
p1497
I103
S'US'
p1498
tp1499
a(S'https://www.google.fr'
p1500
F3.3786908626556396
F61637.14722893148
tp1501
aa(lp1502
(S'A9F86FE4A4E466E1EF976BEDF8DBD81DA2977FD7'
p1503
I16600
S'GB'
p1504
tp1505
a(S'DD0EFE0CED5D343DFE5882551CD15B1570D5EFBD'
p1506
I1400
S'LV'
p1507
tp1508
a(S'C936EF88A118014172ADB0AAA1A2BD31E9AF0F85'
p1509
I87
S'US'
p1510
tp1511
a(S'https://www.google.fr'
p1512
F3.2286633968353273
F42521.86838214996
tp1513
aa(lp1514
(g458
I16500
S'NL'
p1515
tp1516
a(S'022FC55242FF794B9BA1CBEBF90F7F550D4F5B4C'
p1517
I1390
S'US'
p1518
tp1519
a(S'35AF53CB086721CA9EF85B108E1BD7AFA636804B'
p1520
I76
S'US'
p1521
tp1522
a(S'https://www.google.fr'
p1523
F2.5462466955184935
F37406.33013186381
tp1524
aa(lp1525
(S'F727692E40A4CBC7FA5770BD85985243E6098AF5'
p1526
I16500
S'FR'
p1527
tp1528
a(S'71243E3473BA0196115A0A2F5624FD2C79022295'
p1529
I1390
S'US'
p1530
tp1531
a(S'A06EBB1BBD52698ED991313B0E7CFC54CB0B3D81'
p1532
I66
S'FR'
p1533
tp1534
a(S'https://www.google.fr'
p1535
F3.2061427354812624
F43082.753887075116
tp1536
aa(lp1537
(S'CDAEBA458F6129776643751934076A51D851C348'
p1538
I16400
S'DE'
p1539
tp1540
a(S'046281B639E3A8BD54743F742D13B8CB3D3C6259'
p1541
I1380
S'NL'
p1542
tp1543
a(S'B92168B497A17F97D4EF8DD1FE1E720194AF6218'
p1544
I61
S'NL'
p1545
tp1546
a(S'https://www.google.fr'
p1547
F1.6372321605682374
F15082.63889351262
tp1548
aa(lp1549
(S'0EE24CECC294D7C30610AF82EDB073D7172566C3'
p1550
I16300
S'ES'
p1551
tp1552
a(S'5D70E9E2F0C9D37C36BBE6E459A7215915175196'
p1553
I1380
S'MD'
p1554
tp1555
a(S'0EA8D865EB395BEF5D4D9A6ACC35A52682F30E7C'
p1556
I53
S'DK'
p1557
tp1558
a(S'https://www.google.fr'
p1559
F2.6447587966918946
F20186.938244865418
tp1560
aa(lp1561
(S'AA0D167E03E298F9A8CD50F448B81FBD7FA80D56'
p1562
I16300
S'NL'
p1563
tp1564
a(S'8EFF8B75AB43CEC31F116EA92C178BFF9BB3C027'
p1565
I1380
S'US'
p1566
tp1567
a(S'E2B86C0DA80159BED729624B7FF9B822CD5C617F'
p1568
I46
S'RU'
p1569
tp1570
aa(lp1571
(S'FDF845FC159C0020E2BDDA120C30C5C5038F74B4'
p1572
I16300
S'FR'
p1573
tp1574
a(S'3165006DA469B3CBB119E881B5F75C8EE97E5D21'
p1575
I1370
S'US'
p1576
tp1577
a(S'07A1CEA1D77860B477479E44E2EFE3DE89555225'
p1578
I37
S'ES'
p1579
tp1580
aa(lp1581
(S'7202A9449EC084A305EB19A2A2A0E245FA8C111E'
p1582
I16200
S'DE'
p1583
tp1584
a(S'9FB03ED13A150D7661B9C9E5EE2BA02167C46C72'
p1585
I1370
S'NL'
p1586
tp1587
a(S'35ADCFFA3D679D5FBE7A996EB65D393A80BD75CD'
p1588
I33
S'IS'
p1589
tp1590
aa(lp1591
(S'C7371E0DB7F7F5EAFD243853DCA77F3E762625F3'
p1592
I16200
S'LU'
p1593
tp1594
a(S'6A044305B6C369DB84B0A65522F69D73F4ED5C87'
p1595
I1360
S'NL'
p1596
tp1597
a(S'A5B8D173361B2E22D644370404DA2A01F76B9BEC'
p1598
I29
S'ES'
p1599
tp1600
a(S'https://www.google.fr'
p1601
F3.2590025424957276
F18008.922621624362
tp1602
aa(lp1603
(S'EFEEFE073FA3D4300C7C5CCF4A9CF915787A6B23'
p1604
I16100
S'NL'
p1605
tp1606
a(S'5E867629276E266411CBA11CD86C5510A987CC25'
p1607
I1350
S'FI'
p1608
tp1609
a(S'A24A46202A78A7C882524B464C38E21D3F5CA43A'
p1610
I26
S'US'
p1611
tp1612
a(S'https://www.google.fr'
p1613
F3.5269297122955323
F44293.87102343462
tp1614
aa(lp1615
(S'AD2E2841F1A04820E440ADD5384CF768A11C3302'
p1616
I16000
S'GB'
p1617
tp1618
a(S'2815DADD2AE48F4EBE6417B157316D3482A73507'
p1619
I1340
S'NL'
p1620
tp1621
a(S'2228CEF5C10B1C469C428013F7A5E26678F3443F'
p1622
I24
S'GB'
p1623
tp1624
a(S'https://www.google.fr'
p1625
F1.6070786714553833
F16746.550417471393
tp1626
aa(lp1627
(S'FC3DD54E1D690D904247F0CACFCE006523A9C409'
p1628
I16000
S'DE'
p1629
tp1630
a(S'CEC900DF01E306BE12801CC13C35AE8829FC6AEF'
p1631
I1340
S'FR'
p1632
tp1633
a(S'882698B2CA1C3CC8B34751478BFB90CE84C72F36'
p1634
I23
S'DE'
p1635
tp1636
a(S'https://www.google.fr'
p1637
F1.636299991607666
F15972.060424305757
tp1638
aa(lp1639
(g482
I15800
S'US'
p1640
tp1641
a(S'9022B473917D8622BA5A74B914973C7EEC0E7558'
p1642
I1330
S'NO'
p1643
tp1644
a(S'680D5136B4B8453455EF273733DF4FDF890FF35E'
p1645
I22
S'FR'
p1646
tp1647
aa(lp1648
(S'B35C5739C8C5AB72094EB2B05738FD1F8EEF6EBD'
p1649
I15800
S'FR'
p1650
tp1651
a(S'289C647B9B535EFA81F0C26B28BDEBD6CCC22B84'
p1652
I1320
S'DE'
p1653
tp1654
a(S'0EB6BCCDFD66339C25406390D793F61BDC0059BC'
p1655
I21
S'DE'
p1656
tp1657
a(S'https://www.google.fr'
p1658
F1.600688886642456
F16478.03650400615
tp1659
aa(lp1660
(S'C65D3E1BA27F0F39C2F84CE31D20559BF2A36A4F'
p1661
I15700
S'CA'
p1662
tp1663
a(S'9E1287A6C26C4487893AC7D73DF31E65B93D9F00'
p1664
I1320
S'FR'
p1665
tp1666
a(S'95E79CA6A16D3247EEFA95222118DC9BD1844842'
p1667
I21
S'IT'
p1668
tp1669
a(S'https://www.google.fr'
p1670
F3.2021975040435793
F31649.73710593681
tp1671
aa(lp1672
(g494
I15600
S'CA'
p1673
tp1674
a(S'39B6A1DE99D2DD649632CABB6C72827664E3CB29'
p1675
I1310
S'RU'
p1676
tp1677
a(S'4553C1740A2C05045F9DDB0C9E73D691F4B79D49'
p1678
I20
S'DE'
p1679
tp1680
aa(lp1681
(S'3B8EB794055BE593FB39E3872AE80482354A4632'
p1682
I15500
S'DE'
p1683
tp1684
a(S'4EF0D8CA296E5764FB40C64D766B2F826A3C9B0B'
p1685
I1300
S'US'
p1686
tp1687
a(S'854542ABD40C3575896FC0ACFE1FE8863685323C'
p1688
I20
S'NL'
p1689
tp1690
aa(lp1691
(S'E89ACC54C02AE8801FC3E068D11281C76FAF72E7'
p1692
I15500
S'NL'
p1693
tp1694
a(S'663846D4483EC6633AC439DEE8417EBCC7F69B24'
p1695
I1290
S'FR'
p1696
tp1697
a(S'AAE758E4C30FA8134494BEE8859D93F4F424409D'
p1698
I20
S'RU'
p1699
tp1700
a(S'https://www.google.fr'
p1701
F1.9985173702239991
F16416.754383765685
tp1702
aa(lp1703
(S'AE8F1B345698F829399CBAF049B01A14F9EBC15E'
p1704
I15400
S'FR'
p1705
tp1706
a(S'24614E7C984DACFEED5AFE7D8393139395994F30'
p1707
I1280
S'US'
p1708
tp1709
a(S'08D55DEFA1DD70DB7B7E7FCF8299D581824D8DF4'
p1710
I19
S'FR'
p1711
tp1712
aa(lp1713
(S'774555642FDC1E1D4FDF2E0C31B7CA9501C5C9C7'
p1714
I15300
S'NL'
p1715
tp1716
a(S'B02854B0580DCA02AF2A6B5F42D624B03BC66D42'
p1717
I1280
S'US'
p1718
tp1719
a(S'ED84FEEBA3441BE697198F2FAB19AFC687B78E6A'
p1720
I18
S'IS'
p1721
tp1722
aa(lp1723
(S'5380AC5D94BCD4475ECACA54A52167728821977A'
p1724
I15200
S'GB'
p1725
tp1726
a(S'324B12D392BD45AA94982AC09459D3AB03C61D69'
p1727
I1270
S'DE'
p1728
tp1729
a(S'1B3F443F210ACA5E636B39D310EED87E54E4F942'
p1730
I16
S'AM'
p1731
tp1732
a(S'https://www.google.fr'
p1733
F2.4776816606521606
F16485.29837404662
tp1734
aa(lp1735
(S'6D602AC562DFBFE9E4FD440D22FEBC7E062C5611'
p1736
I15100
S'US'
p1737
tp1738
a(S'B39C680A9958B9B032F50F7D02F943B3D82AF4CD'
p1739
I1270
S'RU'
p1740
tp1741
a(S'90F6115AC2955B2675A04A5EEA2F4D79D550BAD1'
p1742
I15
S'DE'
p1743
tp1744
a(S'https://www.google.fr'
p1745
F3.005813646316528
F45141.60501931599
tp1746
aa(lp1747
(S'855A334B91640199B0D8745817C2ABC31363D51F'
p1748
I15000
S'DE'
p1749
tp1750
a(S'26DD39D6F86A44924177A0719710F8D3AABE9F9F'
p1751
I1260
S'NL'
p1752
tp1753
a(S'BBFAD201D1DD18E659BA8F5FCDDA6527B9D13244'
p1754
I14
S'RU'
p1755
tp1756
a(S'https://www.google.fr'
p1757
F1.8441941499710084
F28880.03802890791
tp1758
aa(lp1759
(S'FFCF1FD04F46C429712AC7A04BB442CAD46B255B'
p1760
I15000
S'US'
p1761
tp1762
a(S'1E53D9963D75616B4267B2548E7DAF2EC11CEE58'
p1763
I1250
S'US'
p1764
tp1765
a(S'D21FF8DA36187C9A083736868D173665FBAB4817'
p1766
I13
S'DE'
p1767
tp1768
a(S'https://www.google.fr'
p1769
F3.164715218544006
F47047.29624596817
tp1770
aa(lp1771
(S'0AD5DC3C47CAD362E5682F7FBD5E2E28B2D49899'
p1772
I14800
S'FR'
p1773
tp1774
a(S'E727D0B4179549BB3F82ED3C256F209E54CE0B23'
p1775
I1250
S'US'
p1776
tp1777
a(S'ABDB46802BC404C379DB9403BC22668047330271'
p1778
I12
S'US'
p1779
tp1780
aa(lp1781
(S'EDB6814C5C3D0A20ACC4FBCE93A0648CEED70119'
p1782
I14800
S'BG'
p1783
tp1784
a(S'3F449ADBC6258930CDFD8D8B3E8DF4D8C9312B34'
p1785
I1240
S'UA'
p1786
tp1787
a(S'42ED3E667FF7F543F3C7CA01FA6763FEE06D72A7'
p1788
I11
S'CA'
p1789
tp1790
a(S'https://www.google.fr'
p1791
F2.5423701763153077
F35385.18170570241
tp1792
aa(lp1793
(S'B411027C926A9BFFCF7DA91E3CAF1856A321EFFD'
p1794
I14700
S'DE'
p1795
tp1796
a(S'D915438424F8D687FC41B9A5D6A2A9256C79EF8D'
p1797
I1240
S'US'
p1798
tp1799
a(S'DDF0B5AFA3670CC6EA187DB65A8F8D335730D408'
p1800
I10
S'DE'
p1801
tp1802
a(S'https://www.google.fr'
p1803
F2.920687770843506
F34663.44276584175
tp1804
aa(lp1805
(g517
I14600
S'CH'
p1806
tp1807
a(S'A05B0C28D1A62C7152C86D8E4A78C45142FD55D6'
p1808
I1230
S'DE'
p1809
tp1810
a(S'0896D1A86025B8FA26F30F7E98086916E50E4327'
p1811
I7
S'US'
p1812
tp1813
a(S'https://www.google.fr'
p1814
F2.7814254999160766
F22326.570672853522
tp1815
aa(lp1816
(S'016DD78B2C3A468DDD48AF63F48D25660F93DAAC'
p1817
I14500
S'FR'
p1818
tp1819
a(S'5703226F4D8952CB8FE5B7B50C003E6B964198A4'
p1820
I1220
S'NL'
p1821
tp1822
a(S'4544D4026D447CDA4F8E7F22ED73E8565CCA569E'
p1823
I6
S'RO'
p1824
tp1825
a(S'https://www.google.fr'
p1826
F2.0544077157974243
F27174.63633784696
tp1827
aa(lp1828
(S'B62102CDD7D130B032890A10D3C9508E094696A3'
p1829
I14500
S'GB'
p1830
tp1831
a(S'93B0692FA05D64147F77A95DE57FE67E73F904BC'
p1832
I1220
S'FR'
p1833
tp1834
a(S'C4D41BFB33993F9D64699726A445283CE307E30C'
p1835
I5
S'US'
p1836
tp1837
a(S'https://www.google.fr'
p1838
F3.2153560161590575
F40476.638974049885
tp1839
aa.