(lp0
(lp1
(S'000149E6EF7102AACA9690D6E8DD2932124B94AB'
p2
I6810
S'SE'
p3
tp4
a(S'000A10D43011EA4928A35F610405F92B4433B4DC'
p5
I21
S'US'
p6
tp7
a(S'0011BD2485AD45D984EC4159C88FC066E5E3300E'
p8
I14800
S'US'
p9
tp10
a(S'https://www.google.com.pk'
p11
F32183.86973525954
tp12
a(S'https://www.facebook.com'
p13
F27774.358202689993
tp14
a(S'https://www.amazon.com'
p15
F32363.373697410174
tp16
a(S'https://www.youtube.com.pk'
p17
F32183.86973525954
tp18
a(S'https://www.wikipedia.org'
p19
F35651.138044041065
tp20
aa(lp21
(S'010C3906A032599F501DDF70E28C356E9094E965'
p22
I5180
S'US'
p23
tp24
a(S'00A86F4BF1967CD21C77234DE22AA44BD0D3EEED'
p25
I26
S'CZ'
p26
tp27
a(S'01E1DF33A8D47D0D33F89FC69F009E59C618FD04'
p28
I142
S'NL'
p29
tp30
aa(lp31
(S'01C4623B0411324957A85B0158FF7168EEC28214'
p32
I13500
S'LU'
p33
tp34
a(S'018034682850345984781E353B7A463443EC3F06'
p35
I1850
S'US'
p36
tp37
a(S'047B64A04980EA730DAA39F6A9A79D3F3ADC488A'
p38
I5820
S'NL'
p39
tp40
a(S'https://www.google.com.pk'
p41
F38764.24480759804
tp42
a(S'https://www.facebook.com'
p43
F34358.98547095251
tp44
a(S'https://www.amazon.com'
p45
F39560.16833620121
tp46
a(S'https://www.youtube.com.pk'
p47
F39247.85864971513
tp48
a(S'https://www.wikipedia.org'
p49
F25438.5166941239
tp50
aa(lp51
(S'029E107A59D2B4FEBD06A6115167BD6D048D9C0A'
p52
I2710
S'US'
p53
tp54
a(S'022A4C140977A18A5041BF2E9DC10B2A2B609F93'
p55
I66
S'DE'
p56
tp57
a(S'0896D1A86025B8FA26F30F7E98086916E50E4327'
p58
I7
S'US'
p59
tp60
aa(lp61
(S'04A7DAD133E6D29E676AAFF28D405C611AB59DF5'
p62
I10900
S'GT'
p63
tp64
a(S'02DE00186A13079EEA1637844B9369658D567F8F'
p65
I20
S'SE'
p66
tp67
a(S'0DA9BD201766EDB19F57F49F1A013A8A5432C008'
p68
I33600
S'US'
p69
tp70
aa(lp71
(S'063B9B42CC17932583B4857334C9693554839D35'
p72
I4610
S'DE'
p73
tp74
a(S'0328D700C58EF739964A7764263B2D9D4ADDD2BC'
p75
I564
S'PL'
p76
tp77
a(S'122DF4F0951DC0BAD9DC437D99A76C109BDF3BD0'
p78
I2540
S'NL'
p79
tp80
a(S'https://www.google.com.pk'
p81
F23238.219435510353
tp82
a(S'https://www.facebook.com'
p83
F18832.960098864816
tp84
a(S'https://www.amazon.com'
p85
F23551.06808721958
tp86
a(S'https://www.youtube.com.pk'
p87
F23238.219435510353
tp88
a(S'https://www.wikipedia.org'
p89
F9274.138763644933
tp90
aa(lp91
(S'07931503E96CBC4284EC04534D586FE63DB70992'
p92
I4490
S'US'
p93
tp94
a(S'03A2F59C7415951F16EF5F0FA7A266E63656DFE6'
p95
I109
S'US'
p96
tp97
a(S'15EB133C0291705D18D3CAACDFDD3AF1EA61E48B'
p98
I5920
S'US'
p99
tp100
a(S'https://www.google.com.pk'
p101
F26011.82889872561
tp102
a(S'https://www.facebook.com'
p103
F25009.605398525982
tp104
a(S'https://www.amazon.com'
p105
F26744.575161156026
tp106
a(S'https://www.youtube.com.pk'
p107
F26011.82889872561
tp108
a(S'https://www.wikipedia.org'
p109
F34526.223678086506
tp110
aa(lp111
(S'0853E48B9C822503AF17FC973E3820436B34D88E'
p112
I15400
S'GB'
p113
tp114
a(S'03D130225CCFB89F2E7D348B582EBEA0B2CC95B4'
p115
I888
S'US'
p116
tp117
a(S'185663B7C12777F052B2C2D23D7A239D8DA88A0F'
p118
I5520
S'SE'
p119
tp120
aa(lp121
(S'0ACE2AAC3C432607F52EC68766E35D7A2FB86CAB'
p122
I5000
S'US'
p123
tp124
a(S'046027332520ED08BD21CC45673BA5A19CFE3342'
p125
I160
S'DE'
p126
tp127
a(S'1C79F7E43BD40721AB9D60ACEFEC61A011DC3B1A'
p128
I17400
S'IT'
p129
tp130
a(S'https://www.google.com.pk'
p131
F41654.42016548171
tp132
a(S'https://www.facebook.com'
p133
F36470.655431430125
tp134
a(S'https://www.amazon.com'
p135
F41676.084626965036
tp136
a(S'https://www.youtube.com.pk'
p137
F41654.42016548171
tp138
a(S'https://www.wikipedia.org'
p139
F28142.456624554656
tp140
aa(lp141
(S'0B85617241252517E8ECF2CFC7F4C1A32DCD153F'
p142
I6090
S'CA'
p143
tp144
a(S'04DDE5ECE1B48306946D83E4061C0AC8943D248C'
p145
I77
S'DE'
p146
tp147
a(S'1FC841137C1F4C525D869B908E007D1D35727EF2'
p148
I43900
S'GB'
p149
tp150
a(S'https://www.google.com.pk'
p151
F39511.9616128925
tp152
a(S'https://www.facebook.com'
p153
F35081.407107683845
tp154
a(S'https://www.amazon.com'
p155
F39799.68276260307
tp156
a(S'https://www.youtube.com.pk'
p157
F39659.24872390809
tp158
a(S'https://www.wikipedia.org'
p159
F26036.086369918827
tp160
aa(lp161
(S'0C66352770AAD57CC61F0EAF7D6B5035DC782FD7'
p162
I11400
S'CH'
p163
tp164
a(S'05842CFE35F077605C9095E0ED634C1EDEE06040'
p165
I1640
S'US'
p166
tp167
a(S'2339EF252ABEA01A5EB413E23C0DE802B8F0AD4D'
p168
I30900
S'FR'
p169
tp170
a(S'https://www.google.com.pk'
p171
F39843.727277567305
tp172
a(S'https://www.facebook.com'
p173
F35401.23837483768
tp174
a(S'https://www.amazon.com'
p175
F39978.14765208897
tp176
a(S'https://www.youtube.com.pk'
p177
F39997.254526840276
tp178
a(S'https://www.wikipedia.org'
p179
F26303.730565601338
tp180
aa(lp181
(S'0E2952B179D0D820272E955A2E6BF63544966EEF'
p182
I3570
S'US'
p183
tp184
a(S'06025E26896B8F4A4ED8D3F643E4555CCDCB88DC'
p185
I8
S'DE'
p186
tp187
a(S'24EC0336353769433BA0C026975357A4D054000F'
p188
I37
S'US'
p189
tp190
aa(lp191
(S'0F52E9652F96AD1D500AC062350A149902C128B9'
p192
I6400
S'RO'
p193
tp194
a(S'06AB6E853E8D929F9D60E3A41EF4F97B7CF6FDA4'
p195
I26
S'CZ'
p196
tp197
a(S'27B59BC170CF29DE86EEB933083664FEA5831B1F'
p198
I1330
S'US'
p199
tp200
aa(lp201
(S'10E1CA7A183F6C717DEAEB0703F05451C8CE5D4F'
p202
I13100
S'FR'
p203
tp204
a(S'07421535826490D6C4FD90601ABC5B89774F4F02'
p205
I8
S'AT'
p206
tp207
a(S'2AFD0909E60796DE8E270950C890CE177FF329B4'
p208
I33
S'CZ'
p209
tp210
a(S'https://www.google.com.pk'
p211
F24987.60377021272
tp212
a(S'https://www.facebook.com'
p213
F21691.25589824948
tp214
a(S'https://www.amazon.com'
p215
F25128.485231465093
tp216
a(S'https://www.youtube.com.pk'
p217
F24833.38013781125
tp218
a(S'https://www.wikipedia.org'
p219
F11023.022409545958
tp220
aa(lp221
(S'1211AC1BBB8A1AF7CBA86BCE8689AA3146B86423'
p222
I50300
S'NL'
p223
tp224
a(S'07A7351F4044F6540419483E44E9004CAF7BBF80'
p225
I36
S'DE'
p226
tp227
a(S'2C2CD992B785F09752278260DCD8D6D6242BB87A'
p228
I4820
S'RU'
p229
tp230
aa.