(lp0
(lp1
(S'5CECC5C30ACC4B3DE462792323967087CC53D947'
p2
I236000
S'NL'
p3
tp4
a(S'4A1B44330C6AE63BAE63C441D164CC17D68EFD53'
p5
I92900
S'GB'
p6
tp7
a(g2
I236000
S'NL'
p8
tp9
aa(lp10
(S'B486925DC901969CCE2B371E93740CF98C30539D'
p11
I138000
S'DE'
p12
tp13
a(S'A5EABCD79338A1796A4147C87C05941FBADA0699'
p14
I34800
S'DE'
p15
tp16
a(S'80B0D364A797BDEE39C3152957CD8466C0E25FFF'
p17
I105000
S'SE'
p18
tp19
aa(lp20
(S'C8200264E43F7920B543F8CDAE055E6EECAD658E'
p21
I114000
S'CH'
p22
tp23
a(S'396CAB85997AD559A3F1BBF733D52F402EED241A'
p24
I28000
S'DE'
p25
tp26
a(S'7DD29A65C370B86B5BE706EA3B1417745714C8AF'
p27
I87200
S'NL'
p28
tp29
a(S'https://www.google.com.pk'
p30
F15605.674874472516
tp31
a(S'https://www.facebook.com'
p32
F22345.62482469682
tp33
a(S'https://www.amazon.com'
p34
F22479.141547034993
tp35
a(S'https://www.youtube.com.pk'
p36
F21668.3452085623
tp37
a(S'https://www.twitter.com'
p38
F19652.01410236382
tp39
a(S'https://www.github.com'
p40
F22373.591947825626
tp41
aa(lp42
(S'20B0038D7A2FD73C696922551B8344CB0893D1F8'
p43
I99400
S'RO'
p44
tp45
a(S'9651F7711950F509C5E60785D638491647C78DDB'
p46
I21800
S'DE'
p47
tp48
a(S'F1BE15429B3CE696D6807F4D4A58B1BFEC45C822'
p49
I70200
S'DE'
p50
tp51
a(S'https://www.google.com.pk'
p52
F13991.435553916523
tp53
a(S'https://www.facebook.com'
p54
F18553.92219057405
tp55
a(S'https://www.amazon.com'
p56
F21987.439285602926
tp57
a(S'https://www.youtube.com.pk'
p58
F21841.780998024286
tp59
a(S'https://www.twitter.com'
p60
F19159.592524928412
tp61
a(S'https://www.github.com'
p62
F21883.61521020059
tp63
aa(lp64
(S'3F9D14943E096F4881554E38A598926B13CE89BD'
p65
I85800
S'DE'
p66
tp67
a(S'74BD6E1DFFA20F8A76BD4AA13B6238596DAF562F'
p68
I17200
S'DE'
p69
tp70
a(S'A6B0521C4C1FB91FB66398AAD523AD773E82E77E'
p71
I57500
S'NL'
p72
tp73
aa(lp74
(S'72B2B12A3F60408BDBC98C6DF53988D3A0B3F0EE'
p75
I74000
S'DK'
p76
tp77
a(S'E3FC463D3072410F6618809FF6CBE97276A61B82'
p78
I12600
S'FR'
p79
tp80
a(S'3D6667EFD2B73E77D09DB4446612E315CFBB568B'
p81
I46900
S'DE'
p82
tp83
a(S'https://www.google.com.pk'
p84
F15909.32090181635
tp85
a(S'https://www.facebook.com'
p86
F20810.67865731298
tp87
a(S'https://www.amazon.com'
p88
F23751.557050137522
tp89
a(S'https://www.youtube.com.pk'
p90
F23605.89876255888
tp91
a(S'https://www.twitter.com'
p92
F20923.710289463008
tp93
a(S'https://www.github.com'
p94
F23647.732974735187
tp95
aa(lp96
(S'5665A3904C89E22E971305EE8C1997BCA4123C69'
p97
I64000
S'FR'
p98
tp99
a(S'71090B7A1E3C6980938FE8483D6F3227B5F83444'
p100
I9930
S'US'
p101
tp102
a(S'7A6873B86D82BC8B4F0E790828626107820F7B9E'
p103
I35700
S'NL'
p104
tp105
aa(lp106
(S'8456DFA94161CDD99E480C2A2992C366C6564410'
p107
I61600
S'FR'
p108
tp109
a(S'049C1168996B33B2240DF6D83C35B85452CF70A6'
p110
I8810
S'RU'
p111
tp112
a(S'A0F39D32028CEC7F35419E9570401DE15B1B4564'
p113
I31500
S'DE'
p114
tp115
a(S'https://www.google.com.pk'
p116
F21866.90207606813
tp117
a(S'https://www.facebook.com'
p118
F29731.540772772943
tp119
a(S'https://www.amazon.com'
p120
F29863.361856790776
tp121
a(S'https://www.youtube.com.pk'
p122
F29563.47993681066
tp123
a(S'https://www.twitter.com'
p124
F27035.515096116258
tp125
a(S'https://www.github.com'
p126
F29107.218040563443
tp127
aa(lp128
(S'F3B64D95FCEC86057A43AA0501E1126E871C7493'
p129
I58300
S'DE'
p130
tp131
a(S'F0BCA23872B699283AA039899263DF0147E9B48A'
p132
I7880
S'FR'
p133
tp134
a(S'794D8EA8343A4E820320265D05D4FA83AB6D1778'
p135
I29400
S'NO'
p136
tp137
a(S'https://www.google.com.pk'
p138
F23136.267676390347
tp139
a(S'https://www.facebook.com'
p140
F21287.369901945855
tp141
a(S'https://www.amazon.com'
p142
F23864.968210641156
tp143
a(S'https://www.youtube.com.pk'
p144
F23757.222292198872
tp145
a(S'https://www.twitter.com'
p146
F21096.797903421073
tp147
a(S'https://www.github.com'
p148
F23644.660730517888
tp149
aa(lp150
(S'9030DCF419F6E2FBF84F63CBACBA0097B06F557E'
p151
I56000
S'NL'
p152
tp153
a(S'EE786B317EC1F1C58CE7A868D632CD8FDD0986B4'
p154
I7380
S'GB'
p155
tp156
a(S'3E1762CC4552568B5CA361100C59D7786D25965C'
p157
I27500
S'DE'
p158
tp159
a(S'https://www.google.com.pk'
p160
F16006.232258218912
tp161
a(S'https://www.facebook.com'
p162
F21219.31379946172
tp163
a(S'https://www.amazon.com'
p164
F24004.021607294304
tp165
a(S'https://www.youtube.com.pk'
p166
F23702.81011896144
tp167
a(S'https://www.twitter.com'
p168
F20563.225927193118
tp169
a(S'https://www.github.com'
p170
F23900.19753189197
tp171
aa(lp172
(S'B4F883DB3D478C7AE569C9F6CB766FD58650DC6A'
p173
I55200
S'RO'
p174
tp175
a(S'78C985D29C4CB104A9E233E698538379335D4558'
p176
I6450
S'US'
p177
tp178
a(S'5BB4137D0B47D2946A7E712D7D57A395ABEFD0C8'
p179
I25500
S'US'
p180
tp181
a(S'https://www.google.com.pk'
p182
F21243.636119062023
tp183
a(S'https://www.facebook.com'
p184
F19006.90097108353
tp185
a(S'https://www.amazon.com'
p186
F21274.027556776236
tp187
a(S'https://www.youtube.com.pk'
p188
F21738.677822893085
tp189
a(S'https://www.twitter.com'
p190
F19109.071512142265
tp191
a(S'https://www.github.com'
p192
F21930.069766462213
tp193
aa(lp194
(S'76246A4E4B9C99810630B206BBBCF674C4566CF1'
p195
I53200
S'DK'
p196
tp197
a(S'26A50B4B93DDC69D1AF27E78139DEBF2722CD201'
p198
I5580
S'US'
p199
tp200
a(S'EFAE44728264982224445E96214C15F9075DEE1D'
p201
I24000
S'FR'
p202
tp203
a(S'https://www.google.com.pk'
p204
F39076.45816088225
tp205
a(S'https://www.facebook.com'
p206
F39090.41464165537
tp207
a(S'https://www.amazon.com'
p208
F39031.02055660997
tp209
a(S'https://www.youtube.com.pk'
p210
F39076.45816088225
tp211
a(S'https://www.twitter.com'
p212
F36202.68052326904
tp213
a(S'https://www.github.com'
p214
F39117.62126336477
tp215
aa(lp216
(S'F9B91E94F6C5E71FB4714DEA47407D98CC3760ED'
p217
I51200
S'DE'
p218
tp219
a(S'5990143CCA85A1F573174D0E862D87EBFD948BD7'
p220
I5010
S'FR'
p221
tp222
a(S'29A663712E0AD2C435509D35EE8734CFB3E1649D'
p223
I22200
S'GB'
p224
tp225
a(S'https://www.google.com.pk'
p226
F15673.772060064783
tp227
a(S'https://www.facebook.com'
p228
F21366.93225720724
tp229
a(S'https://www.amazon.com'
p230
F22114.44140856585
tp231
a(S'https://www.youtube.com.pk'
p232
F21818.729688373533
tp233
a(S'https://www.twitter.com'
p234
F19286.86311595256
tp235
a(S'https://www.github.com'
p236
F22015.661486175697
tp237
aa(lp238
(S'1AC65257D7BFDE7341046625470809693A8ED83E'
p239
I48600
S'DE'
p240
tp241
a(S'6A914C2649EA67210319A3D9EF40BDBDC7A0CAF3'
p242
I4810
S'FR'
p243
tp244
a(S'FBBB88FE31B18EA932B787F8BACC7DFBEDDD09D8'
p245
I20400
S'GB'
p246
tp247
a(S'https://www.google.com.pk'
p248
F22011.166467705858
tp249
a(S'https://www.facebook.com'
p250
F19213.147243988577
tp251
a(S'https://www.amazon.com'
p252
F21532.020498271402
tp253
a(S'https://www.youtube.com.pk'
p254
F21855.888786208518
tp255
a(S'https://www.twitter.com'
p256
F19170.221046244475
tp257
a(S'https://www.github.com'
p258
F21897.573236458767
tp259
aa(lp260
(S'79861CF8522FC637EF046F7688F5289E49D94576'
p261
I47100
S'SE'
p262
tp263
a(S'BDDF4396A3BB2547B1EECB569238072A6148B012'
p264
I4400
S'LT'
p265
tp266
a(S'0269165034C5586D6551CCCFA8940D2305948754'
p267
I19300
S'DE'
p268
tp269
a(S'https://www.google.com.pk'
p270
F15421.45316167243
tp271
a(S'https://www.facebook.com'
p272
F23287.619650606317
tp273
a(S'https://www.amazon.com'
p274
F23263.689309993602
tp275
a(S'https://www.youtube.com.pk'
p276
F23118.03102241496
tp277
a(S'https://www.twitter.com'
p278
F20435.842549319088
tp279
a(S'https://www.github.com'
p280
F22814.806183084478
tp281
aa(lp282
(S'4DDA0BF725794C4703418514F3C46FAFA97EE931'
p283
I45800
S'DE'
p284
tp285
a(S'47873C6427F151C659F4C274EA043E8A33AE299C'
p286
I4210
S'DE'
p287
tp288
a(S'98F44299592FC31FD3F2F8969D27374D00E96B9B'
p289
I18400
S'FR'
p290
tp291
a(S'https://www.google.com.pk'
p292
F21729.847822071926
tp293
a(S'https://www.facebook.com'
p294
F19212.49820819939
tp295
a(S'https://www.amazon.com'
p296
F21995.858484288947
tp297
a(S'https://www.youtube.com.pk'
p298
F21885.125503569263
tp299
a(S'https://www.twitter.com'
p300
F19012.240769450676
tp301
a(S'https://www.github.com'
p302
F21771.010924554437
tp303
aa(lp304
(S'1FC841137C1F4C525D869B908E007D1D35727EF2'
p305
I44100
S'GB'
p306
tp307
a(S'F10BDE279AE71515DDCCCC61DC19AC8765F8A3CC'
p308
I4020
S'CA'
p309
tp310
a(S'C65D3E1BA27F0F39C2F84CE31D20559BF2A36A4F'
p311
I17500
S'CA'
p312
tp313
a(S'https://www.google.com.pk'
p314
F21933.161909892417
tp315
a(S'https://www.facebook.com'
p316
F17230.97311478377
tp317
a(S'https://www.amazon.com'
p318
F21346.168630368727
tp319
a(S'https://www.youtube.com.pk'
p320
F21933.161909892417
tp321
a(S'https://www.twitter.com'
p322
F19156.637564602563
tp323
a(S'https://www.github.com'
p324
F21971.518225134438
tp325
aa.