(lp0
(lp1
(S'5CECC5C30ACC4B3DE462792323967087CC53D947'
p2
I236000
S'NL'
p3
tp4
a(S'4A1B44330C6AE63BAE63C441D164CC17D68EFD53'
p5
I92900
S'GB'
p6
tp7
a(g2
I236000
S'NL'
p8
tp9
aa(lp10
(S'B486925DC901969CCE2B371E93740CF98C30539D'
p11
I138000
S'DE'
p12
tp13
a(S'A5EABCD79338A1796A4147C87C05941FBADA0699'
p14
I34800
S'DE'
p15
tp16
a(S'80B0D364A797BDEE39C3152957CD8466C0E25FFF'
p17
I105000
S'SE'
p18
tp19
aa(lp20
(S'C8200264E43F7920B543F8CDAE055E6EECAD658E'
p21
I114000
S'CH'
p22
tp23
a(S'396CAB85997AD559A3F1BBF733D52F402EED241A'
p24
I28000
S'DE'
p25
tp26
a(S'7DD29A65C370B86B5BE706EA3B1417745714C8AF'
p27
I87200
S'NL'
p28
tp29
a(S'https://www.google.com.pk'
p30
F2.340148687362671
F15605.674874472516
tp31
a(S'https://www.facebook.com'
p32
F1.6361860513687134
F22192.097575423853
tp33
a(S'https://www.amazon.com'
p34
F1.8643762826919557
F22479.141547034993
tp35
a(S'https://www.youtube.com.pk'
p36
F2.2839879751205445
F22178.25409995348
tp37
a(S'https://www.twitter.com'
p38
F2.7600728034973145
F19498.48685309085
tp39
a(S'https://www.github.com'
p40
F1.914350199699402
F22220.06469855266
tp41
aa(lp42
(S'20B0038D7A2FD73C696922551B8344CB0893D1F8'
p43
I99400
S'RO'
p44
tp45
a(S'9651F7711950F509C5E60785D638491647C78DDB'
p46
I21800
S'DE'
p47
tp48
a(S'F1BE15429B3CE696D6807F4D4A58B1BFEC45C822'
p49
I70200
S'DE'
p50
tp51
a(S'https://www.google.com.pk'
p52
F2.7175121307373047
F13496.39385008546
tp53
a(S'https://www.facebook.com'
p54
F2.1526781558990478
F19202.731477770343
tp55
a(S'https://www.amazon.com'
p56
F2.5270975828170776
F21987.439285602926
tp57
a(S'https://www.youtube.com.pk'
p58
F2.3798920631408693
F21841.780998024286
tp59
a(S'https://www.twitter.com'
p60
F2.173638367652893
F19159.592524928412
tp61
a(S'https://www.github.com'
p62
F2.1269771337509153
F21729.84762683536
tp63
aa(lp64
(S'3F9D14943E096F4881554E38A598926B13CE89BD'
p65
I85800
S'DE'
p66
tp67
a(S'74BD6E1DFFA20F8A76BD4AA13B6238596DAF562F'
p68
I17200
S'DE'
p69
tp70
a(S'A6B0521C4C1FB91FB66398AAD523AD773E82E77E'
p71
I57500
S'NL'
p72
tp73
aa(lp74
(S'72B2B12A3F60408BDBC98C6DF53988D3A0B3F0EE'
p75
I74000
S'DK'
p76
tp77
a(S'E3FC463D3072410F6618809FF6CBE97276A61B82'
p78
I12600
S'FR'
p79
tp80
a(S'3D6667EFD2B73E77D09DB4446612E315CFBB568B'
p81
I46900
S'DE'
p82
tp83
a(S'https://www.google.com.pk'
p84
F2.4835865020751955
F15909.32090181635
tp85
a(S'https://www.facebook.com'
p86
F2.1805222034454346
F20966.84924230494
tp87
a(S'https://www.amazon.com'
p88
F2.418642592430115
F23751.557050137522
tp89
a(S'https://www.youtube.com.pk'
p90
F2.469156503677368
F23449.728177566918
tp91
a(S'https://www.twitter.com'
p92
F2.241041660308838
F20362.723618420576
tp93
a(S'https://www.github.com'
p94
F2.184355139732361
F23647.732974735187
tp95
aa(lp96
(S'5665A3904C89E22E971305EE8C1997BCA4123C69'
p97
I64000
S'FR'
p98
tp99
a(S'71090B7A1E3C6980938FE8483D6F3227B5F83444'
p100
I9930
S'US'
p101
tp102
a(S'7A6873B86D82BC8B4F0E790828626107820F7B9E'
p103
I35700
S'NL'
p104
tp105
a(S'https://www.google.com.pk'
p106
F8.651404023170471
F32645.056986980257
tp107
a(S'https://www.facebook.com'
p108
I0
F34985.55869405397
tp109
a(S'https://www.amazon.com'
p110
I0
F39394.234832400376
tp111
a(S'https://www.youtube.com.pk'
p112
I0
F38738.64442492258
tp113
a(S'https://www.twitter.com'
p114
I0
F36568.94535816871
tp115
a(S'https://www.github.com'
p116
I0
F39278.6970171913
tp117
aa(lp118
(S'8456DFA94161CDD99E480C2A2992C366C6564410'
p119
I61600
S'FR'
p120
tp121
a(S'049C1168996B33B2240DF6D83C35B85452CF70A6'
p122
I8810
S'RU'
p123
tp124
a(S'A0F39D32028CEC7F35419E9570401DE15B1B4564'
p125
I31500
S'DE'
p126
tp127
a(S'https://www.google.com.pk'
p128
F2.3673654794692993
F22021.125708469604
tp129
a(S'https://www.facebook.com'
p130
F2.128435802459717
F29577.317140371473
tp131
a(S'https://www.amazon.com'
p132
F2.1680583477020265
F29709.138224389302
tp133
a(S'https://www.youtube.com.pk'
p134
F2.5310067176818847
F29717.703569212135
tp135
a(S'https://www.twitter.com'
p136
F2.0092564105987547
F26881.291463714788
tp137
a(S'https://www.github.com'
p138
F2.0475839138031007
F29107.218040563443
tp139
aa(lp140
(S'F3B64D95FCEC86057A43AA0501E1126E871C7493'
p141
I58300
S'DE'
p142
tp143
a(S'F0BCA23872B699283AA039899263DF0147E9B48A'
p144
I7880
S'FR'
p145
tp146
a(S'794D8EA8343A4E820320265D05D4FA83AB6D1778'
p147
I29400
S'NO'
p148
tp149
a(S'https://www.google.com.pk'
p150
F2.340109419822693
F23757.222292198872
tp151
a(S'https://www.facebook.com'
p152
F1.9620507478713989
F21132.092220448518
tp153
a(S'https://www.amazon.com'
p154
F2.25115966796875
F23864.968210641156
tp155
a(S'https://www.youtube.com.pk'
p156
F1.9671157121658325
F23757.222292198872
tp157
a(S'https://www.twitter.com'
p158
F2.13539571762085
F20631.120969109885
tp159
a(S'https://www.github.com'
p160
F2.030746269226074
F23644.660730517888
tp161
aa(lp162
(S'9030DCF419F6E2FBF84F63CBACBA0097B06F557E'
p163
I56000
S'NL'
p164
tp165
a(S'EE786B317EC1F1C58CE7A868D632CD8FDD0986B4'
p166
I7380
S'GB'
p167
tp168
a(S'3E1762CC4552568B5CA361100C59D7786D25965C'
p169
I27500
S'DE'
p170
tp171
a(S'https://www.google.com.pk'
p172
F1.955583143234253
F15548.83653954646
tp173
a(S'https://www.facebook.com'
p174
F1.767573094367981
F21063.7605987075
tp175
a(S'https://www.amazon.com'
p176
F1.8907801866531373
F24004.021607294304
tp177
a(S'https://www.youtube.com.pk'
p178
F1.7882766485214234
F23245.414400288988
tp179
a(S'https://www.twitter.com'
p180
F1.735044813156128
F21176.17484661979
tp181
a(S'https://www.github.com'
p182
F1.8044641494750977
F23900.19753189197
tp183
aa(lp184
(S'B4F883DB3D478C7AE569C9F6CB766FD58650DC6A'
p185
I55200
S'RO'
p186
tp187
a(S'78C985D29C4CB104A9E233E698538379335D4558'
p188
I6450
S'US'
p189
tp190
a(S'5BB4137D0B47D2946A7E712D7D57A395ABEFD0C8'
p191
I25500
S'US'
p192
tp193
a(S'https://www.google.com.pk'
p194
F2.7947890996932983
F21892.445406258317
tp195
a(S'https://www.facebook.com'
p196
F2.5696672201156616
F21906.342977602326
tp197
a(S'https://www.amazon.com'
p198
F2.3943317890167237
F21769.0692606073
tp199
a(S'https://www.youtube.com.pk'
p200
F2.7158424854278564
F21738.677822893085
tp201
a(S'https://www.twitter.com'
p202
F3.137470507621765
F18955.303928777033
tp203
a(S'https://www.github.com'
p204
F2.2926851511001587
F21281.26047926592
tp205
aa(lp206
(S'76246A4E4B9C99810630B206BBBCF674C4566CF1'
p207
I53200
S'DK'
p208
tp209
a(S'26A50B4B93DDC69D1AF27E78139DEBF2722CD201'
p210
I5580
S'US'
p211
tp212
a(S'EFAE44728264982224445E96214C15F9075DEE1D'
p213
I24000
S'FR'
p214
tp215
a(S'https://www.google.com.pk'
p216
F3.365212607383728
F39076.45816088225
tp217
a(S'https://www.facebook.com'
p218
F3.1082701683044434
F38934.2440566634
tp219
a(S'https://www.amazon.com'
p220
F2.9499134063720702
F39031.02055660997
tp221
a(S'https://www.youtube.com.pk'
p222
F2.95472993850708
F39076.45816088225
tp223
a(S'https://www.twitter.com'
p224
F2.765214729309082
F36202.68052326904
tp225
a(S'https://www.github.com'
p226
F2.9071598052978516
F39117.62126336477
tp227
aa(lp228
(S'F9B91E94F6C5E71FB4714DEA47407D98CC3760ED'
p229
I51200
S'DE'
p230
tp231
a(S'5990143CCA85A1F573174D0E862D87EBFD948BD7'
p232
I5010
S'FR'
p233
tp234
a(S'29A663712E0AD2C435509D35EE8734CFB3E1649D'
p235
I22200
S'GB'
p236
tp237
a(S'https://www.google.com.pk'
p238
F1.9167081117630005
F16139.448994375969
tp239
a(S'https://www.facebook.com'
p240
F1.6161398410797119
F19329.837262060362
tp241
a(S'https://www.amazon.com'
p242
F1.9131739616394043
F22114.44140856585
tp243
a(S'https://www.youtube.com.pk'
p244
F1.7850996255874634
F21353.052754062344
tp245
a(S'https://www.twitter.com'
p246
F1.811665153503418
F19286.86311595256
tp247
a(S'https://www.github.com'
p248
F1.7523864030838012
F22015.661486175697
tp249
aa(lp250
(S'1AC65257D7BFDE7341046625470809693A8ED83E'
p251
I48600
S'DE'
p252
tp253
a(S'6A914C2649EA67210319A3D9EF40BDBDC7A0CAF3'
p254
I4810
S'FR'
p255
tp256
a(S'FBBB88FE31B18EA932B787F8BACC7DFBEDDD09D8'
p257
I20400
S'GB'
p258
tp259
a(S'https://www.google.com.pk'
p260
F2.3679104089736938
F21855.888786208518
tp261
a(S'https://www.facebook.com'
p262
F2.2270687103271483
F19368.424925485913
tp263
a(S'https://www.amazon.com'
p264
F2.5799746036529543
F21997.697432582587
tp265
a(S'https://www.youtube.com.pk'
p266
F2.4528604984283446
F22011.166467705858
tp267
a(S'https://www.twitter.com'
p268
F2.701603317260742
F18704.54411193329
tp269
a(S'https://www.github.com'
p270
F2.4407588958740236
F22052.850917956104
tp271
aa(lp272
(S'79861CF8522FC637EF046F7688F5289E49D94576'
p273
I47100
S'SE'
p274
tp275
a(S'BDDF4396A3BB2547B1EECB569238072A6148B012'
p276
I4400
S'LT'
p277
tp278
a(S'0269165034C5586D6551CCCFA8940D2305948754'
p279
I19300
S'DE'
p280
tp281
a(S'https://www.google.com.pk'
p282
F2.51183705329895
F15577.204586302978
tp283
a(S'https://www.facebook.com'
p284
F1.9218105316162108
F23287.619650606317
tp285
a(S'https://www.amazon.com'
p286
F2.2160020589828493
F23263.689309993602
tp287
a(S'https://www.youtube.com.pk'
p288
F2.450600743293762
F23273.78244704551
tp289
a(S'https://www.twitter.com'
p290
F2.469827914237976
F20435.842549319088
tp291
a(S'https://www.github.com'
p292
F1.9379523038864135
F22814.806183084478
tp293
aa(lp294
(S'4DDA0BF725794C4703418514F3C46FAFA97EE931'
p295
I45800
S'DE'
p296
tp297
a(S'47873C6427F151C659F4C274EA043E8A33AE299C'
p298
I4210
S'DE'
p299
tp300
a(S'98F44299592FC31FD3F2F8969D27374D00E96B9B'
p301
I18400
S'FR'
p302
tp303
a(S'https://www.google.com.pk'
p304
F2.2754846811294556
F21264.170887760738
tp305
a(S'https://www.facebook.com'
p306
F1.5174845457077026
F21743.80430284504
tp307
a(S'https://www.amazon.com'
p308
F1.7446622371673584
F21840.580802791606
tp309
a(S'https://www.youtube.com.pk'
p310
F1.6557077407836913
F21885.125503569263
tp311
a(S'https://www.twitter.com'
p312
F1.5420302867889404
F19167.518450948013
tp313
a(S'https://www.github.com'
p314
F1.5929917573928833
F21771.010924554437
tp315
aa(lp316
(S'1FC841137C1F4C525D869B908E007D1D35727EF2'
p317
I44100
S'GB'
p318
tp319
a(S'F10BDE279AE71515DDCCCC61DC19AC8765F8A3CC'
p320
I4020
S'CA'
p321
tp322
a(S'C65D3E1BA27F0F39C2F84CE31D20559BF2A36A4F'
p323
I17500
S'CA'
p324
tp325
a(S'https://www.google.com.pk'
p326
F2.3502487897872926
F21778.005192600805
tp327
a(S'https://www.facebook.com'
p328
F2.2968177080154417
F17230.97311478377
tp329
a(S'https://www.amazon.com'
p330
F1.9503801822662354
F21346.168630368727
tp331
a(S'https://www.youtube.com.pk'
p332
F2.184265446662903
F21778.005192600805
tp333
a(S'https://www.twitter.com'
p334
F2.2978770971298217
F19001.48084731095
tp335
a(S'https://www.github.com'
p336
F1.928719735145569
F21971.518225134438
tp337
aa.